;/////////////////////////////////////////////////////////////////////////////////
;// Code Generator: BoostC Compiler - http://www.sourceboost.com
;// Version       : 7.03
;// License Type  : Pro License
;// Limitations   : PIC12,PIC16 max code size:Unlimited, max RAM banks:Unlimited
;/////////////////////////////////////////////////////////////////////////////////

	ORG 0x00000000
0000  158A  	BSF PCLATH,3
0001  2A79  	GOTO	_startup
	ORG 0x00000004
0004  00FF  	MOVWF Int1Context
0005  0E03  	SWAPF STATUS, W
0006  00FC  	MOVWF Int1BContext
0007  0E0A  	SWAPF PCLATH, W
0008  00FD  	MOVWF Int1BContext+D'1'
0009  0E04  	SWAPF FSR, W
000A  00FE  	MOVWF Int1BContext+D'2'
000B  158A  	BSF PCLATH,3
000C  120A  	BCF PCLATH,4
000D  2AA9  	GOTO	interrupt
	ORG 0x00000010
0010        delay_ms_00000
0010        ; { delay_ms ; function begin
0010  08CA  	MOVF delay_ms_00000_arg_del, F
0011  1D03  	BTFSS STATUS,Z
0012  2814  	GOTO	label1
0013  0008  	RETURN
0014        label1
0014  30F9  	MOVLW 0xF9
0015        label2
0015  0000  	NOP
0016  0000  	NOP
0017  0000  	NOP
0018  0000  	NOP
0019  0000  	NOP
001A  0000  	NOP
001B  3EFF  	ADDLW 0xFF
001C  1D03  	BTFSS STATUS,Z
001D  2815  	GOTO	label2
001E  0000  	NOP
001F  0000  	NOP
0020  0000  	NOP
0021  0000  	NOP
0022  0000  	NOP
0023  0000  	NOP
0024  0000  	NOP
0025  0BCA  	DECFSZ delay_ms_00000_arg_del, F
0026  2814  	GOTO	label1
0027  0008  	RETURN
0028        ; } delay_ms function end

	ORG 0x00000028
0028        delay_10us_00000
0028        ; { delay_10us ; function begin
0028  08DD  	MOVF delay_10us_00000_arg_del, F
0029  1D03  	BTFSS STATUS,Z
002A  282C  	GOTO	label3
002B  0008  	RETURN
002C        label3
002C  3004  	MOVLW 0x04
002D        label4
002D  0000  	NOP
002E  3EFF  	ADDLW 0xFF
002F  1D03  	BTFSS STATUS,Z
0030  282D  	GOTO	label4
0031  0000  	NOP
0032  0000  	NOP
0033  0BDD  	DECFSZ delay_10us_00000_arg_del, F
0034  282C  	GOTO	label3
0035  0008  	RETURN
0036        ; } delay_10us function end

	ORG 0x00000036
0036        delay_us_00000
0036        ; { delay_us ; function begin
0036  3001  	MOVLW 0x01
0037  07C9  	ADDWF delay_us_00000_arg_del, F
0038  0CC9  	RRF delay_us_00000_arg_del, F
0039  30FF  	MOVLW 0xFF
003A  05C9  	ANDWF delay_us_00000_arg_del, F
003B        label5
003B  0000  	NOP
003C  0000  	NOP
003D  0BC9  	DECFSZ delay_us_00000_arg_del, F
003E  283B  	GOTO	label5
003F  0008  	RETURN
0040        ; } delay_us function end

	ORG 0x00000040
0040        __rom_get_00000
0040        ; { __rom_get ; function begin
0040  0849  	MOVF __rom_get_00000_arg_objNumb, W
0041  00D1  	MOVWF __rom_get_00000_1_romAddr+D'1'
0042  01D0  	CLRF __rom_get_00000_1_romAddr
0043  1003  	BCF STATUS,C
0044  0DD1  	RLF __rom_get_00000_1_romAddr+D'1', F
0045  0DD0  	RLF __rom_get_00000_1_romAddr, F
0046  0DD1  	RLF __rom_get_00000_1_romAddr+D'1', F
0047  0DD0  	RLF __rom_get_00000_1_romAddr, F
0048  07D1  	ADDWF __rom_get_00000_1_romAddr+D'1', F
0049  1803  	BTFSC STATUS,C
004A  0AD0  	INCF __rom_get_00000_1_romAddr, F
004B  07D1  	ADDWF __rom_get_00000_1_romAddr+D'1', F
004C  1803  	BTFSC STATUS,C
004D  0AD0  	INCF __rom_get_00000_1_romAddr, F
004E  3059  	MOVLW	LOW( label6 )
004F  07D1  	ADDWF __rom_get_00000_1_romAddr+D'1', F
0050  1803  	BTFSC STATUS,C
0051  0AD0  	INCF __rom_get_00000_1_romAddr, F
0052  3000  	MOVLW	HIGH( label6 )
0053  0750  	ADDWF __rom_get_00000_1_romAddr, W
0054  008A  	MOVWF PCLATH
0055  084A  	MOVF __rom_get_00000_arg_idx, W
0056  00D0  	MOVWF __rom_get_00000_1_romAddr
0057  0851  	MOVF __rom_get_00000_1_romAddr+D'1', W
0058  0082  	MOVWF PCL
0059        label6
0059  3000  	MOVLW	HIGH( label7 )
005A  008A  	MOVWF PCLATH
005B  3000  	MOVLW	HIGH( label8 )
005C  00D1  	MOVWF __rom_get_00000_1_romAddr+D'1'
005D  3075  	MOVLW	LOW( label8 )
005E  286E  	GOTO	label7
005F  3000  	MOVLW	HIGH( label7 )
0060  008A  	MOVWF PCLATH
0061  3000  	MOVLW	HIGH( label9 )
0062  00D1  	MOVWF __rom_get_00000_1_romAddr+D'1'
0063  3078  	MOVLW	LOW( label9 )
0064  286E  	GOTO	label7
0065  3000  	MOVLW	HIGH( label7 )
0066  008A  	MOVWF PCLATH
0067  3000  	MOVLW	HIGH( label10 )
0068  00D1  	MOVWF __rom_get_00000_1_romAddr+D'1'
0069  307C  	MOVLW	LOW( label10 )
006A  286E  	GOTO	label7
006B  3000  	MOVLW	HIGH( label11 )
006C  00D1  	MOVWF __rom_get_00000_1_romAddr+D'1'
006D  3088  	MOVLW	LOW( label11 )
006E        label7
006E  07D0  	ADDWF __rom_get_00000_1_romAddr, F
006F  1803  	BTFSC STATUS,C
0070  0AD1  	INCF __rom_get_00000_1_romAddr+D'1', F
0071  0851  	MOVF __rom_get_00000_1_romAddr+D'1', W
0072  008A  	MOVWF PCLATH
0073  0850  	MOVF __rom_get_00000_1_romAddr, W
0074  0082  	MOVWF PCL
0075        label8
0075  3402  	RETLW 0x02
0076  3401  	RETLW 0x01
0077  3400  	RETLW 0x00
0078        label9
0078  3404  	RETLW 0x04
0079  3405  	RETLW 0x05
007A  3406  	RETLW 0x06
007B  3407  	RETLW 0x07
007C        label10
007C  3401  	RETLW 0x01
007D  3404  	RETLW 0x04
007E  3407  	RETLW 0x07
007F  340A  	RETLW 0x0A
0080  3402  	RETLW 0x02
0081  3405  	RETLW 0x05
0082  3408  	RETLW 0x08
0083  3400  	RETLW 0x00
0084  3403  	RETLW 0x03
0085  3406  	RETLW 0x06
0086  3409  	RETLW 0x09
0087  340B  	RETLW 0x0B
0088        label11
0088  3431  	RETLW 0x31
0089  3434  	RETLW 0x34
008A  3437  	RETLW 0x37
008B  342A  	RETLW 0x2A
008C  3432  	RETLW 0x32
008D  3435  	RETLW 0x35
008E  3438  	RETLW 0x38
008F  3430  	RETLW 0x30
0090  3433  	RETLW 0x33
0091  3436  	RETLW 0x36
0092  3439  	RETLW 0x39
0093  3423  	RETLW 0x23
0094        ; } __rom_get function end

	ORG 0x00000094
0094        delay_s_00000
0094        ; { delay_s ; function begin
0094        label12
0094  30FA  	MOVLW 0xFA
0095  00CA  	MOVWF delay_ms_00000_arg_del
0096  2010  	CALL delay_ms_00000
0097  30FA  	MOVLW 0xFA
0098  00CA  	MOVWF delay_ms_00000_arg_del
0099  2010  	CALL delay_ms_00000
009A  30FA  	MOVLW 0xFA
009B  00CA  	MOVWF delay_ms_00000_arg_del
009C  2010  	CALL delay_ms_00000
009D  30FA  	MOVLW 0xFA
009E  00CA  	MOVWF delay_ms_00000_arg_del
009F  2010  	CALL delay_ms_00000
00A0  0BC6  	DECFSZ delay_s_00000_arg_del, F
00A1  2894  	GOTO	label12
00A2  0008  	RETURN
00A3        ; } delay_s function end

	ORG 0x000000A3
00A3        __mul_32u__0000F
00A3        ; { __mul_32u_32u ; function begin
00A3  01E0  	CLRF __mul_32u__0000F_1_i
00A4  01E1  	CLRF CompTempVarRet464
00A5  01E2  	CLRF CompTempVarRet464+D'1'
00A6  01E3  	CLRF CompTempVarRet464+D'2'
00A7  01E4  	CLRF CompTempVarRet464+D'3'
00A8        label13
00A8  1AE0  	BTFSC __mul_32u__0000F_1_i,5
00A9  0008  	RETURN
00AA  1C58  	BTFSS __mul_32u__0000F_arg_b,0
00AB  28BA  	GOTO	label14
00AC  0854  	MOVF __mul_32u__0000F_arg_a, W
00AD  07E1  	ADDWF CompTempVarRet464, F
00AE  0855  	MOVF __mul_32u__0000F_arg_a+D'1', W
00AF  1803  	BTFSC gbl_status,0
00B0  0F55  	INCFSZ __mul_32u__0000F_arg_a+D'1', W
00B1  07E2  	ADDWF CompTempVarRet464+D'1', F
00B2  0856  	MOVF __mul_32u__0000F_arg_a+D'2', W
00B3  1803  	BTFSC gbl_status,0
00B4  0F56  	INCFSZ __mul_32u__0000F_arg_a+D'2', W
00B5  07E3  	ADDWF CompTempVarRet464+D'2', F
00B6  0857  	MOVF __mul_32u__0000F_arg_a+D'3', W
00B7  1803  	BTFSC gbl_status,0
00B8  0F57  	INCFSZ __mul_32u__0000F_arg_a+D'3', W
00B9  07E4  	ADDWF CompTempVarRet464+D'3', F
00BA        label14
00BA  1003  	BCF gbl_status,0
00BB  0CDB  	RRF __mul_32u__0000F_arg_b+D'3', F
00BC  0CDA  	RRF __mul_32u__0000F_arg_b+D'2', F
00BD  0CD9  	RRF __mul_32u__0000F_arg_b+D'1', F
00BE  0CD8  	RRF __mul_32u__0000F_arg_b, F
00BF  1003  	BCF gbl_status,0
00C0  0DD4  	RLF __mul_32u__0000F_arg_a, F
00C1  0DD5  	RLF __mul_32u__0000F_arg_a+D'1', F
00C2  0DD6  	RLF __mul_32u__0000F_arg_a+D'2', F
00C3  0DD7  	RLF __mul_32u__0000F_arg_a+D'3', F
00C4  0AE0  	INCF __mul_32u__0000F_1_i, F
00C5  28A8  	GOTO	label13
00C6        ; } __mul_32u_32u function end

	ORG 0x000000C6
00C6        __div_32_3_00001
00C6        ; { __div_32_32 ; function begin
00C6  01DC  	CLRF __div_32_3_00001_1_r
00C7  01DD  	CLRF __div_32_3_00001_1_r+D'1'
00C8  01DE  	CLRF __div_32_3_00001_1_r+D'2'
00C9  01DF  	CLRF __div_32_3_00001_1_r+D'3'
00CA  01E1  	CLRF CompTempVarRet210
00CB  01E2  	CLRF CompTempVarRet210+D'1'
00CC  01E3  	CLRF CompTempVarRet210+D'2'
00CD  01E4  	CLRF CompTempVarRet210+D'3'
00CE  01E0  	CLRF __div_32_3_00001_1_i
00CF        label15
00CF  1AE0  	BTFSC __div_32_3_00001_1_i,5
00D0  0008  	RETURN
00D1  1003  	BCF STATUS,C
00D2  0DE1  	RLF CompTempVarRet210, F
00D3  0DE2  	RLF CompTempVarRet210+D'1', F
00D4  0DE3  	RLF CompTempVarRet210+D'2', F
00D5  0DE4  	RLF CompTempVarRet210+D'3', F
00D6  0DD4  	RLF __div_32_3_00001_arg_a, F
00D7  0DD5  	RLF __div_32_3_00001_arg_a+D'1', F
00D8  0DD6  	RLF __div_32_3_00001_arg_a+D'2', F
00D9  0DD7  	RLF __div_32_3_00001_arg_a+D'3', F
00DA  0DDC  	RLF __div_32_3_00001_1_r, F
00DB  0DDD  	RLF __div_32_3_00001_1_r+D'1', F
00DC  0DDE  	RLF __div_32_3_00001_1_r+D'2', F
00DD  0DDF  	RLF __div_32_3_00001_1_r+D'3', F
00DE  085B  	MOVF __div_32_3_00001_arg_b+D'3', W
00DF  025F  	SUBWF __div_32_3_00001_1_r+D'3', W
00E0  1D03  	BTFSS STATUS,Z
00E1  28EC  	GOTO	label16
00E2  085A  	MOVF __div_32_3_00001_arg_b+D'2', W
00E3  025E  	SUBWF __div_32_3_00001_1_r+D'2', W
00E4  1D03  	BTFSS STATUS,Z
00E5  28EC  	GOTO	label16
00E6  0859  	MOVF __div_32_3_00001_arg_b+D'1', W
00E7  025D  	SUBWF __div_32_3_00001_1_r+D'1', W
00E8  1D03  	BTFSS STATUS,Z
00E9  28EC  	GOTO	label16
00EA  0858  	MOVF __div_32_3_00001_arg_b, W
00EB  025C  	SUBWF __div_32_3_00001_1_r, W
00EC        label16
00EC  1C03  	BTFSS STATUS,C
00ED  28FD  	GOTO	label17
00EE  0858  	MOVF __div_32_3_00001_arg_b, W
00EF  02DC  	SUBWF __div_32_3_00001_1_r, F
00F0  0859  	MOVF __div_32_3_00001_arg_b+D'1', W
00F1  1C03  	BTFSS STATUS,C
00F2  0F59  	INCFSZ __div_32_3_00001_arg_b+D'1', W
00F3  02DD  	SUBWF __div_32_3_00001_1_r+D'1', F
00F4  085A  	MOVF __div_32_3_00001_arg_b+D'2', W
00F5  1C03  	BTFSS STATUS,C
00F6  0F5A  	INCFSZ __div_32_3_00001_arg_b+D'2', W
00F7  02DE  	SUBWF __div_32_3_00001_1_r+D'2', F
00F8  085B  	MOVF __div_32_3_00001_arg_b+D'3', W
00F9  1C03  	BTFSS STATUS,C
00FA  0F5B  	INCFSZ __div_32_3_00001_arg_b+D'3', W
00FB  02DF  	SUBWF __div_32_3_00001_1_r+D'3', F
00FC  1461  	BSF CompTempVarRet210,0
00FD        label17
00FD  0AE0  	INCF __div_32_3_00001_1_i, F
00FE  28CF  	GOTO	label15
00FF        ; } __div_32_32 function end

	ORG 0x000000FF
00FF        FC_CAL_EE__00064
00FF        ; { FC_CAL_EE_Write ; function begin
00FF        label18
00FF  1703  	BSF STATUS, RP1
0100  188C  	BTFSC gbl_eecon1,1
0101  28FF  	GOTO	label18
0102  1303  	BCF STATUS, RP1
0103  084A  	MOVF FC_CAL_EE__00064_arg_Address, W
0104  1283  	BCF STATUS, RP0
0105  1703  	BSF STATUS, RP1
0106  008D  	MOVWF gbl_eeadr
0107  1683  	BSF STATUS, RP0
0108  1303  	BCF STATUS, RP1
0109  084C  	MOVF FC_CAL_EE__00064_arg_Data, W
010A  1283  	BCF STATUS, RP0
010B  1703  	BSF STATUS, RP1
010C  008C  	MOVWF gbl_eedata
010D  1683  	BSF STATUS, RP0
010E  138C  	BCF gbl_eecon1,7
010F  150C  	BSF gbl_eecon1,2
0110  3080  	MOVLW 0x80
0111  050B  	ANDWF gbl_intcon, W
0112  1303  	BCF STATUS, RP1
0113  00CD  	MOVWF FC_CAL_EE__00064_1_bInterr_00065
0114  138B  	BCF gbl_intcon,7
0115  3055  	MOVLW 0x55
0116  1703  	BSF STATUS, RP1
0117  008D  	MOVWF gbl_eecon2
0118  30AA  	MOVLW 0xAA
0119  008D  	MOVWF gbl_eecon2
011A  148C  	BSF gbl_eecon1,1
011B        label19
011B  188C  	BTFSC gbl_eecon1,1
011C  291B  	GOTO	label19
011D  1303  	BCF STATUS, RP1
011E  08CD  	MOVF FC_CAL_EE__00064_1_bInterr_00065, F
011F  1903  	BTFSC STATUS,Z
0120  2922  	GOTO	label20
0121  178B  	BSF gbl_intcon,7
0122        label20
0122  1703  	BSF STATUS, RP1
0123  110C  	BCF gbl_eecon1,2
0124  0008  	RETURN
0125        ; } FC_CAL_EE_Write function end

	ORG 0x00000125
0125        FC_CAL_EE__00063
0125        ; { FC_CAL_EE_Read ; function begin
0125  01CA  	CLRF FC_CAL_EE__00063_1_data
0126  0848  	MOVF FC_CAL_EE__00063_arg_Address, W
0127  1283  	BCF STATUS, RP0
0128  1703  	BSF STATUS, RP1
0129  008D  	MOVWF gbl_eeadr
012A  1683  	BSF STATUS, RP0
012B  138C  	BCF gbl_eecon1,7
012C  140C  	BSF gbl_eecon1,0
012D  1283  	BCF STATUS, RP0
012E  080C  	MOVF gbl_eedata, W
012F  1683  	BSF STATUS, RP0
0130  1303  	BCF STATUS, RP1
0131  00CA  	MOVWF FC_CAL_EE__00063_1_data
0132  084A  	MOVF FC_CAL_EE__00063_1_data, W
0133  00CB  	MOVWF CompTempVarRet2319
0134  0008  	RETURN
0135        ; } FC_CAL_EE_Read function end

	ORG 0x00000135
0135        __rem_32_3_00002
0135        ; { __rem_32_32 ; function begin
0135  01D3  	CLRF CompTempVarRet212
0136  01D4  	CLRF CompTempVarRet212+D'1'
0137  01D5  	CLRF CompTempVarRet212+D'2'
0138  01D6  	CLRF CompTempVarRet212+D'3'
0139  01CE  	CLRF __rem_32_3_00002_1_c
013A  01CF  	CLRF __rem_32_3_00002_1_c+D'1'
013B  01D0  	CLRF __rem_32_3_00002_1_c+D'2'
013C  01D1  	CLRF __rem_32_3_00002_1_c+D'3'
013D  01D2  	CLRF __rem_32_3_00002_1_i
013E        label21
013E  1AD2  	BTFSC __rem_32_3_00002_1_i,5
013F  0008  	RETURN
0140  1003  	BCF STATUS,C
0141  0DCE  	RLF __rem_32_3_00002_1_c, F
0142  0DCF  	RLF __rem_32_3_00002_1_c+D'1', F
0143  0DD0  	RLF __rem_32_3_00002_1_c+D'2', F
0144  0DD1  	RLF __rem_32_3_00002_1_c+D'3', F
0145  0DC6  	RLF __rem_32_3_00002_arg_a, F
0146  0DC7  	RLF __rem_32_3_00002_arg_a+D'1', F
0147  0DC8  	RLF __rem_32_3_00002_arg_a+D'2', F
0148  0DC9  	RLF __rem_32_3_00002_arg_a+D'3', F
0149  0DD3  	RLF CompTempVarRet212, F
014A  0DD4  	RLF CompTempVarRet212+D'1', F
014B  0DD5  	RLF CompTempVarRet212+D'2', F
014C  0DD6  	RLF CompTempVarRet212+D'3', F
014D  084D  	MOVF __rem_32_3_00002_arg_b+D'3', W
014E  0256  	SUBWF CompTempVarRet212+D'3', W
014F  1D03  	BTFSS STATUS,Z
0150  295B  	GOTO	label22
0151  084C  	MOVF __rem_32_3_00002_arg_b+D'2', W
0152  0255  	SUBWF CompTempVarRet212+D'2', W
0153  1D03  	BTFSS STATUS,Z
0154  295B  	GOTO	label22
0155  084B  	MOVF __rem_32_3_00002_arg_b+D'1', W
0156  0254  	SUBWF CompTempVarRet212+D'1', W
0157  1D03  	BTFSS STATUS,Z
0158  295B  	GOTO	label22
0159  084A  	MOVF __rem_32_3_00002_arg_b, W
015A  0253  	SUBWF CompTempVarRet212, W
015B        label22
015B  1C03  	BTFSS STATUS,C
015C  296C  	GOTO	label23
015D  084A  	MOVF __rem_32_3_00002_arg_b, W
015E  02D3  	SUBWF CompTempVarRet212, F
015F  084B  	MOVF __rem_32_3_00002_arg_b+D'1', W
0160  1C03  	BTFSS STATUS,C
0161  0F4B  	INCFSZ __rem_32_3_00002_arg_b+D'1', W
0162  02D4  	SUBWF CompTempVarRet212+D'1', F
0163  084C  	MOVF __rem_32_3_00002_arg_b+D'2', W
0164  1C03  	BTFSS STATUS,C
0165  0F4C  	INCFSZ __rem_32_3_00002_arg_b+D'2', W
0166  02D5  	SUBWF CompTempVarRet212+D'2', F
0167  084D  	MOVF __rem_32_3_00002_arg_b+D'3', W
0168  1C03  	BTFSS STATUS,C
0169  0F4D  	INCFSZ __rem_32_3_00002_arg_b+D'3', W
016A  02D6  	SUBWF CompTempVarRet212+D'3', F
016B  144E  	BSF __rem_32_3_00002_1_c,0
016C        label23
016C  0AD2  	INCF __rem_32_3_00002_1_i, F
016D  293E  	GOTO	label21
016E        ; } __rem_32_32 function end

	ORG 0x0000016E
016E        Wdt_Delay__0003E
016E        ; { Wdt_Delay_Ms ; function begin
016E  01C9  	CLRF Wdt_Delay__0003E_1_i
016F        label24
016F  0848  	MOVF Wdt_Delay__0003E_arg_delay, W
0170  0249  	SUBWF Wdt_Delay__0003E_1_i, W
0171  1803  	BTFSC STATUS,C
0172  0008  	RETURN
0173  0064  	CLRWDT
0174  3001  	MOVLW 0x01
0175  00CA  	MOVWF delay_ms_00000_arg_del
0176  2010  	CALL delay_ms_00000
0177  0AC9  	INCF Wdt_Delay__0003E_1_i, F
0178  296F  	GOTO	label24
0179        ; } Wdt_Delay_Ms function end

	ORG 0x00000179
0179        FCI_TOSTRI_00049
0179        ; { FCI_TOSTRING ; function begin
0179  08CC  	MOVF FCI_TOSTRI_00049_arg_iDst_len, F
017A  1D03  	BTFSS STATUS,Z
017B  297E  	GOTO	label25
017C  01D3  	CLRF CompTempVarRet2009
017D  0008  	RETURN
017E        label25
017E  01CE  	CLRF FCI_TOSTRI_00049_1_top
017F  30CA  	MOVLW 0xCA
0180  00CF  	MOVWF FCI_TOSTRI_00049_1_top+D'1'
0181  309A  	MOVLW 0x9A
0182  00D0  	MOVWF FCI_TOSTRI_00049_1_top+D'2'
0183  303B  	MOVLW 0x3B
0184  00D1  	MOVWF FCI_TOSTRI_00049_1_top+D'3'
0185  01D2  	CLRF FCI_TOSTRI_00049_1_idx
0186  1FC9  	BTFSS FCI_TOSTRI_00049_arg_iSrc1+D'3',7
0187  299E  	GOTO	label26
0188  1383  	BCF STATUS,IRP
0189  184B  	BTFSC FCI_TOSTRI_00049_arg_sDst+D'1',0
018A  1783  	BSF STATUS,IRP
018B  084A  	MOVF FCI_TOSTRI_00049_arg_sDst, W
018C  0084  	MOVWF FSR
018D  01D4  	CLRF CompTempVar2011
018E  0854  	MOVF CompTempVar2011, W
018F  0784  	ADDWF FSR, F
0190  302D  	MOVLW 0x2D
0191  0080  	MOVWF INDF
0192  0AD2  	INCF FCI_TOSTRI_00049_1_idx, F
0193  09C6  	COMF FCI_TOSTRI_00049_arg_iSrc1, F
0194  09C7  	COMF FCI_TOSTRI_00049_arg_iSrc1+D'1', F
0195  09C8  	COMF FCI_TOSTRI_00049_arg_iSrc1+D'2', F
0196  09C9  	COMF FCI_TOSTRI_00049_arg_iSrc1+D'3', F
0197  0FC6  	INCFSZ FCI_TOSTRI_00049_arg_iSrc1, F
0198  299E  	GOTO	label26
0199  0FC7  	INCFSZ FCI_TOSTRI_00049_arg_iSrc1+D'1', F
019A  299E  	GOTO	label26
019B  0FC8  	INCFSZ FCI_TOSTRI_00049_arg_iSrc1+D'2', F
019C  299E  	GOTO	label26
019D  0AC9  	INCF FCI_TOSTRI_00049_arg_iSrc1+D'3', F
019E        label26
019E  01CD  	CLRF FCI_TOSTRI_00049_1_tmp1
019F  0846  	MOVF FCI_TOSTRI_00049_arg_iSrc1, W
01A0  0447  	IORWF FCI_TOSTRI_00049_arg_iSrc1+D'1', W
01A1  0448  	IORWF FCI_TOSTRI_00049_arg_iSrc1+D'2', W
01A2  0449  	IORWF FCI_TOSTRI_00049_arg_iSrc1+D'3', W
01A3  39FF  	ANDLW 0xFF
01A4  1D03  	BTFSS STATUS,Z
01A5  29AC  	GOTO	label27
01A6  3001  	MOVLW 0x01
01A7  00CD  	MOVWF FCI_TOSTRI_00049_1_tmp1
01A8  00CE  	MOVWF FCI_TOSTRI_00049_1_top
01A9  01CF  	CLRF FCI_TOSTRI_00049_1_top+D'1'
01AA  01D0  	CLRF FCI_TOSTRI_00049_1_top+D'2'
01AB  01D1  	CLRF FCI_TOSTRI_00049_1_top+D'3'
01AC        label27
01AC  084C  	MOVF FCI_TOSTRI_00049_arg_iDst_len, W
01AD  0252  	SUBWF FCI_TOSTRI_00049_1_idx, W
01AE  1803  	BTFSC STATUS,C
01AF  2A2F  	GOTO	label32
01B0  0851  	MOVF FCI_TOSTRI_00049_1_top+D'3', W
01B1  3C00  	SUBLW 0x00
01B2  1D03  	BTFSS STATUS,Z
01B3  29BE  	GOTO	label28
01B4  0850  	MOVF FCI_TOSTRI_00049_1_top+D'2', W
01B5  3C00  	SUBLW 0x00
01B6  1D03  	BTFSS STATUS,Z
01B7  29BE  	GOTO	label28
01B8  084F  	MOVF FCI_TOSTRI_00049_1_top+D'1', W
01B9  3C00  	SUBLW 0x00
01BA  1D03  	BTFSS STATUS,Z
01BB  29BE  	GOTO	label28
01BC  084E  	MOVF FCI_TOSTRI_00049_1_top, W
01BD  3C00  	SUBLW 0x00
01BE        label28
01BE  1803  	BTFSC STATUS,C
01BF  2A2F  	GOTO	label32
01C0  0851  	MOVF FCI_TOSTRI_00049_1_top+D'3', W
01C1  0249  	SUBWF FCI_TOSTRI_00049_arg_iSrc1+D'3', W
01C2  1D03  	BTFSS STATUS,Z
01C3  29CE  	GOTO	label29
01C4  0850  	MOVF FCI_TOSTRI_00049_1_top+D'2', W
01C5  0248  	SUBWF FCI_TOSTRI_00049_arg_iSrc1+D'2', W
01C6  1D03  	BTFSS STATUS,Z
01C7  29CE  	GOTO	label29
01C8  084F  	MOVF FCI_TOSTRI_00049_1_top+D'1', W
01C9  0247  	SUBWF FCI_TOSTRI_00049_arg_iSrc1+D'1', W
01CA  1D03  	BTFSS STATUS,Z
01CB  29CE  	GOTO	label29
01CC  084E  	MOVF FCI_TOSTRI_00049_1_top, W
01CD  0246  	SUBWF FCI_TOSTRI_00049_arg_iSrc1, W
01CE        label29
01CE  1803  	BTFSC STATUS,C
01CF  29D3  	GOTO	label30
01D0  08CD  	MOVF FCI_TOSTRI_00049_1_tmp1, F
01D1  1903  	BTFSC STATUS,Z
01D2  2A18  	GOTO	label31
01D3        label30
01D3  0846  	MOVF FCI_TOSTRI_00049_arg_iSrc1, W
01D4  00D4  	MOVWF __div_32_3_00001_arg_a
01D5  0847  	MOVF FCI_TOSTRI_00049_arg_iSrc1+D'1', W
01D6  00D5  	MOVWF __div_32_3_00001_arg_a+D'1'
01D7  0848  	MOVF FCI_TOSTRI_00049_arg_iSrc1+D'2', W
01D8  00D6  	MOVWF __div_32_3_00001_arg_a+D'2'
01D9  0849  	MOVF FCI_TOSTRI_00049_arg_iSrc1+D'3', W
01DA  00D7  	MOVWF __div_32_3_00001_arg_a+D'3'
01DB  084E  	MOVF FCI_TOSTRI_00049_1_top, W
01DC  00D8  	MOVWF __div_32_3_00001_arg_b
01DD  084F  	MOVF FCI_TOSTRI_00049_1_top+D'1', W
01DE  00D9  	MOVWF __div_32_3_00001_arg_b+D'1'
01DF  0850  	MOVF FCI_TOSTRI_00049_1_top+D'2', W
01E0  00DA  	MOVWF __div_32_3_00001_arg_b+D'2'
01E1  0851  	MOVF FCI_TOSTRI_00049_1_top+D'3', W
01E2  00DB  	MOVWF __div_32_3_00001_arg_b+D'3'
01E3  20C6  	CALL __div_32_3_00001
01E4  0861  	MOVF CompTempVarRet210, W
01E5  00CD  	MOVWF FCI_TOSTRI_00049_1_tmp1
01E6  084D  	MOVF FCI_TOSTRI_00049_1_tmp1, W
01E7  3E30  	ADDLW 0x30
01E8  00D4  	MOVWF CompTempVar2017
01E9  1383  	BCF STATUS,IRP
01EA  184B  	BTFSC FCI_TOSTRI_00049_arg_sDst+D'1',0
01EB  1783  	BSF STATUS,IRP
01EC  084A  	MOVF FCI_TOSTRI_00049_arg_sDst, W
01ED  0752  	ADDWF FCI_TOSTRI_00049_1_idx, W
01EE  0084  	MOVWF FSR
01EF  0854  	MOVF CompTempVar2017, W
01F0  0080  	MOVWF INDF
01F1  0AD2  	INCF FCI_TOSTRI_00049_1_idx, F
01F2  084D  	MOVF FCI_TOSTRI_00049_1_tmp1, W
01F3  00D4  	MOVWF __mul_32u__0000F_arg_a
01F4  01D5  	CLRF __mul_32u__0000F_arg_a+D'1'
01F5  01D6  	CLRF __mul_32u__0000F_arg_a+D'2'
01F6  01D7  	CLRF __mul_32u__0000F_arg_a+D'3'
01F7  084E  	MOVF FCI_TOSTRI_00049_1_top, W
01F8  00D8  	MOVWF __mul_32u__0000F_arg_b
01F9  084F  	MOVF FCI_TOSTRI_00049_1_top+D'1', W
01FA  00D9  	MOVWF __mul_32u__0000F_arg_b+D'1'
01FB  0850  	MOVF FCI_TOSTRI_00049_1_top+D'2', W
01FC  00DA  	MOVWF __mul_32u__0000F_arg_b+D'2'
01FD  0851  	MOVF FCI_TOSTRI_00049_1_top+D'3', W
01FE  00DB  	MOVWF __mul_32u__0000F_arg_b+D'3'
01FF  20A3  	CALL __mul_32u__0000F
0200  0861  	MOVF CompTempVarRet464, W
0201  00DC  	MOVWF CompTempVar2018
0202  0862  	MOVF CompTempVarRet464+D'1', W
0203  00DD  	MOVWF CompTempVar2019
0204  0863  	MOVF CompTempVarRet464+D'2', W
0205  00DE  	MOVWF CompTempVar2020
0206  0864  	MOVF CompTempVarRet464+D'3', W
0207  00DF  	MOVWF CompTempVar2021
0208  085C  	MOVF CompTempVar2018, W
0209  02C6  	SUBWF FCI_TOSTRI_00049_arg_iSrc1, F
020A  085D  	MOVF CompTempVar2019, W
020B  1C03  	BTFSS STATUS,C
020C  0F5D  	INCFSZ CompTempVar2019, W
020D  02C7  	SUBWF FCI_TOSTRI_00049_arg_iSrc1+D'1', F
020E  085E  	MOVF CompTempVar2020, W
020F  1C03  	BTFSS STATUS,C
0210  0F5E  	INCFSZ CompTempVar2020, W
0211  02C8  	SUBWF FCI_TOSTRI_00049_arg_iSrc1+D'2', F
0212  085F  	MOVF CompTempVar2021, W
0213  1C03  	BTFSS STATUS,C
0214  0F5F  	INCFSZ CompTempVar2021, W
0215  02C9  	SUBWF FCI_TOSTRI_00049_arg_iSrc1+D'3', F
0216  3001  	MOVLW 0x01
0217  00CD  	MOVWF FCI_TOSTRI_00049_1_tmp1
0218        label31
0218  084E  	MOVF FCI_TOSTRI_00049_1_top, W
0219  00D4  	MOVWF __div_32_3_00001_arg_a
021A  084F  	MOVF FCI_TOSTRI_00049_1_top+D'1', W
021B  00D5  	MOVWF __div_32_3_00001_arg_a+D'1'
021C  0850  	MOVF FCI_TOSTRI_00049_1_top+D'2', W
021D  00D6  	MOVWF __div_32_3_00001_arg_a+D'2'
021E  0851  	MOVF FCI_TOSTRI_00049_1_top+D'3', W
021F  00D7  	MOVWF __div_32_3_00001_arg_a+D'3'
0220  300A  	MOVLW 0x0A
0221  00D8  	MOVWF __div_32_3_00001_arg_b
0222  01D9  	CLRF __div_32_3_00001_arg_b+D'1'
0223  01DA  	CLRF __div_32_3_00001_arg_b+D'2'
0224  01DB  	CLRF __div_32_3_00001_arg_b+D'3'
0225  20C6  	CALL __div_32_3_00001
0226  0861  	MOVF CompTempVarRet210, W
0227  00CE  	MOVWF FCI_TOSTRI_00049_1_top
0228  0862  	MOVF CompTempVarRet210+D'1', W
0229  00CF  	MOVWF FCI_TOSTRI_00049_1_top+D'1'
022A  0863  	MOVF CompTempVarRet210+D'2', W
022B  00D0  	MOVWF FCI_TOSTRI_00049_1_top+D'2'
022C  0864  	MOVF CompTempVarRet210+D'3', W
022D  00D1  	MOVWF FCI_TOSTRI_00049_1_top+D'3'
022E  29AC  	GOTO	label27
022F        label32
022F  084C  	MOVF FCI_TOSTRI_00049_arg_iDst_len, W
0230  0252  	SUBWF FCI_TOSTRI_00049_1_idx, W
0231  1803  	BTFSC STATUS,C
0232  2A3B  	GOTO	label33
0233  1383  	BCF STATUS,IRP
0234  184B  	BTFSC FCI_TOSTRI_00049_arg_sDst+D'1',0
0235  1783  	BSF STATUS,IRP
0236  084A  	MOVF FCI_TOSTRI_00049_arg_sDst, W
0237  0752  	ADDWF FCI_TOSTRI_00049_1_idx, W
0238  0084  	MOVWF FSR
0239  3000  	MOVLW 0x00
023A  0080  	MOVWF INDF
023B        label33
023B  0852  	MOVF FCI_TOSTRI_00049_1_idx, W
023C  00D3  	MOVWF CompTempVarRet2009
023D  0008  	RETURN
023E        ; } FCI_TOSTRING function end

	ORG 0x0000023E
023E        FCI_STRING_0004F
023E        ; { FCI_STRING_TO_INT ; function begin
023E  01C9  	CLRF FCI_STRING_0004F_1_bNegative
023F  01CA  	CLRF FCI_STRING_0004F_1_idx
0240  01CB  	CLRF FCI_STRING_0004F_1_RetVal
0241  01CC  	CLRF FCI_STRING_0004F_1_RetVal+D'1'
0242  01CD  	CLRF FCI_STRING_0004F_1_RetVal+D'2'
0243  01CE  	CLRF FCI_STRING_0004F_1_RetVal+D'3'
0244  1383  	BCF STATUS,IRP
0245  1847  	BTFSC FCI_STRING_0004F_arg_String+D'1',0
0246  1783  	BSF STATUS,IRP
0247  0846  	MOVF FCI_STRING_0004F_arg_String, W
0248  0084  	MOVWF FSR
0249  01CF  	CLRF CompTempVar2063
024A  084F  	MOVF CompTempVar2063, W
024B  0784  	ADDWF FSR, F
024C  0800  	MOVF INDF, W
024D  3A2D  	XORLW 0x2D
024E  1D03  	BTFSS STATUS,Z
024F  2A53  	GOTO	label34
0250  3001  	MOVLW 0x01
0251  00C9  	MOVWF FCI_STRING_0004F_1_bNegative
0252  00CA  	MOVWF FCI_STRING_0004F_1_idx
0253        label34
0253  0848  	MOVF FCI_STRING_0004F_arg_MSZ_String, W
0254  024A  	SUBWF FCI_STRING_0004F_1_idx, W
0255  1803  	BTFSC STATUS,C
0256  2AAE  	GOTO	label35
0257  1383  	BCF STATUS,IRP
0258  1847  	BTFSC FCI_STRING_0004F_arg_String+D'1',0
0259  1783  	BSF STATUS,IRP
025A  0846  	MOVF FCI_STRING_0004F_arg_String, W
025B  074A  	ADDWF FCI_STRING_0004F_1_idx, W
025C  0084  	MOVWF FSR
025D  3030  	MOVLW 0x30
025E  0200  	SUBWF INDF, W
025F  1C03  	BTFSS STATUS,C
0260  2AAE  	GOTO	label35
0261  1383  	BCF STATUS,IRP
0262  1847  	BTFSC FCI_STRING_0004F_arg_String+D'1',0
0263  1783  	BSF STATUS,IRP
0264  0846  	MOVF FCI_STRING_0004F_arg_String, W
0265  074A  	ADDWF FCI_STRING_0004F_1_idx, W
0266  0084  	MOVWF FSR
0267  0800  	MOVF INDF, W
0268  3C39  	SUBLW 0x39
0269  1C03  	BTFSS STATUS,C
026A  2AAE  	GOTO	label35
026B  084B  	MOVF FCI_STRING_0004F_1_RetVal, W
026C  00D4  	MOVWF __mul_32u__0000F_arg_a
026D  084C  	MOVF FCI_STRING_0004F_1_RetVal+D'1', W
026E  00D5  	MOVWF __mul_32u__0000F_arg_a+D'1'
026F  084D  	MOVF FCI_STRING_0004F_1_RetVal+D'2', W
0270  00D6  	MOVWF __mul_32u__0000F_arg_a+D'2'
0271  084E  	MOVF FCI_STRING_0004F_1_RetVal+D'3', W
0272  00D7  	MOVWF __mul_32u__0000F_arg_a+D'3'
0273  300A  	MOVLW 0x0A
0274  00D8  	MOVWF __mul_32u__0000F_arg_b
0275  01D9  	CLRF __mul_32u__0000F_arg_b+D'1'
0276  01DA  	CLRF __mul_32u__0000F_arg_b+D'2'
0277  01DB  	CLRF __mul_32u__0000F_arg_b+D'3'
0278  20A3  	CALL __mul_32u__0000F
0279  0861  	MOVF CompTempVarRet464, W
027A  00DC  	MOVWF CompTempVar2071
027B  0862  	MOVF CompTempVarRet464+D'1', W
027C  00DD  	MOVWF CompTempVar2072
027D  0863  	MOVF CompTempVarRet464+D'2', W
027E  00DE  	MOVWF CompTempVar2073
027F  0864  	MOVF CompTempVarRet464+D'3', W
0280  00DF  	MOVWF CompTempVar2074
0281  085C  	MOVF CompTempVar2071, W
0282  00CB  	MOVWF FCI_STRING_0004F_1_RetVal
0283  085D  	MOVF CompTempVar2072, W
0284  00CC  	MOVWF FCI_STRING_0004F_1_RetVal+D'1'
0285  085E  	MOVF CompTempVar2073, W
0286  00CD  	MOVWF FCI_STRING_0004F_1_RetVal+D'2'
0287  085F  	MOVF CompTempVar2074, W
0288  00CE  	MOVWF FCI_STRING_0004F_1_RetVal+D'3'
0289  1383  	BCF STATUS,IRP
028A  1847  	BTFSC FCI_STRING_0004F_arg_String+D'1',0
028B  1783  	BSF STATUS,IRP
028C  0846  	MOVF FCI_STRING_0004F_arg_String, W
028D  074A  	ADDWF FCI_STRING_0004F_1_idx, W
028E  0084  	MOVWF FSR
028F  3030  	MOVLW 0x30
0290  0200  	SUBWF INDF, W
0291  00D0  	MOVWF CompTempVar2077
0292  01D1  	CLRF CompTempVar2078
0293  01D2  	CLRF CompTempVar2079
0294  01D3  	CLRF CompTempVar2080
0295  084B  	MOVF FCI_STRING_0004F_1_RetVal, W
0296  07D0  	ADDWF CompTempVar2077, F
0297  084C  	MOVF FCI_STRING_0004F_1_RetVal+D'1', W
0298  1803  	BTFSC STATUS,C
0299  0F4C  	INCFSZ FCI_STRING_0004F_1_RetVal+D'1', W
029A  07D1  	ADDWF CompTempVar2078, F
029B  084D  	MOVF FCI_STRING_0004F_1_RetVal+D'2', W
029C  1803  	BTFSC STATUS,C
029D  0F4D  	INCFSZ FCI_STRING_0004F_1_RetVal+D'2', W
029E  07D2  	ADDWF CompTempVar2079, F
029F  084E  	MOVF FCI_STRING_0004F_1_RetVal+D'3', W
02A0  1803  	BTFSC STATUS,C
02A1  0F4E  	INCFSZ FCI_STRING_0004F_1_RetVal+D'3', W
02A2  07D3  	ADDWF CompTempVar2080, F
02A3  0850  	MOVF CompTempVar2077, W
02A4  00CB  	MOVWF FCI_STRING_0004F_1_RetVal
02A5  0851  	MOVF CompTempVar2078, W
02A6  00CC  	MOVWF FCI_STRING_0004F_1_RetVal+D'1'
02A7  0852  	MOVF CompTempVar2079, W
02A8  00CD  	MOVWF FCI_STRING_0004F_1_RetVal+D'2'
02A9  0853  	MOVF CompTempVar2080, W
02AA  00CE  	MOVWF FCI_STRING_0004F_1_RetVal+D'3'
02AB  0A4A  	INCF FCI_STRING_0004F_1_idx, W
02AC  00CA  	MOVWF FCI_STRING_0004F_1_idx
02AD  2A53  	GOTO	label34
02AE        label35
02AE  08C9  	MOVF FCI_STRING_0004F_1_bNegative, F
02AF  1903  	BTFSC STATUS,Z
02B0  2ACC  	GOTO	label36
02B1  084B  	MOVF FCI_STRING_0004F_1_RetVal, W
02B2  3C00  	SUBLW 0x00
02B3  00D0  	MOVWF CompTempVar2081
02B4  3000  	MOVLW 0x00
02B5  00D1  	MOVWF CompTempVar2082
02B6  00D2  	MOVWF CompTempVar2083
02B7  00D3  	MOVWF CompTempVar2084
02B8  084C  	MOVF FCI_STRING_0004F_1_RetVal+D'1', W
02B9  1C03  	BTFSS STATUS,C
02BA  0F4C  	INCFSZ FCI_STRING_0004F_1_RetVal+D'1', W
02BB  02D1  	SUBWF CompTempVar2082, F
02BC  084D  	MOVF FCI_STRING_0004F_1_RetVal+D'2', W
02BD  1C03  	BTFSS STATUS,C
02BE  0F4D  	INCFSZ FCI_STRING_0004F_1_RetVal+D'2', W
02BF  02D2  	SUBWF CompTempVar2083, F
02C0  084E  	MOVF FCI_STRING_0004F_1_RetVal+D'3', W
02C1  1C03  	BTFSS STATUS,C
02C2  0F4E  	INCFSZ FCI_STRING_0004F_1_RetVal+D'3', W
02C3  02D3  	SUBWF CompTempVar2084, F
02C4  0850  	MOVF CompTempVar2081, W
02C5  00CB  	MOVWF FCI_STRING_0004F_1_RetVal
02C6  0851  	MOVF CompTempVar2082, W
02C7  00CC  	MOVWF FCI_STRING_0004F_1_RetVal+D'1'
02C8  0852  	MOVF CompTempVar2083, W
02C9  00CD  	MOVWF FCI_STRING_0004F_1_RetVal+D'2'
02CA  0853  	MOVF CompTempVar2084, W
02CB  00CE  	MOVWF FCI_STRING_0004F_1_RetVal+D'3'
02CC        label36
02CC  084B  	MOVF FCI_STRING_0004F_1_RetVal, W
02CD  00D0  	MOVWF CompTempVarRet2061
02CE  084C  	MOVF FCI_STRING_0004F_1_RetVal+D'1', W
02CF  00D1  	MOVWF CompTempVarRet2061+D'1'
02D0  084D  	MOVF FCI_STRING_0004F_1_RetVal+D'2', W
02D1  00D2  	MOVWF CompTempVarRet2061+D'2'
02D2  084E  	MOVF FCI_STRING_0004F_1_RetVal+D'3', W
02D3  00D3  	MOVWF CompTempVarRet2061+D'3'
02D4  0008  	RETURN
02D5        ; } FCI_STRING_TO_INT function end

	ORG 0x000002D5
02D5        FCI_SHEAD_00000
02D5        ; { FCI_SHEAD ; function begin
02D5  01D1  	CLRF FCI_SHEAD_00000_1_len
02D6  084E  	MOVF FCI_SHEAD_00000_arg_sDst, W
02D7  0649  	XORWF FCI_SHEAD_00000_arg_sSrc2, W
02D8  1D03  	BTFSS STATUS,Z
02D9  2B7C  	GOTO	label48
02DA  084F  	MOVF FCI_SHEAD_00000_arg_sDst+D'1', W
02DB  064A  	XORWF FCI_SHEAD_00000_arg_sSrc2+D'1', W
02DC  1D03  	BTFSS STATUS,Z
02DD  2B7C  	GOTO	label48
02DE  01D2  	CLRF FCI_SHEAD_00000_1_strt
02DF        label37
02DF  0848  	MOVF FCI_SHEAD_00000_arg_iSrc1_len, W
02E0  0252  	SUBWF FCI_SHEAD_00000_1_strt, W
02E1  1803  	BTFSC STATUS,C
02E2  2AEE  	GOTO	label38
02E3  1383  	BCF STATUS,IRP
02E4  1847  	BTFSC FCI_SHEAD_00000_arg_sSrc1+D'1',0
02E5  1783  	BSF STATUS,IRP
02E6  0846  	MOVF FCI_SHEAD_00000_arg_sSrc1, W
02E7  0752  	ADDWF FCI_SHEAD_00000_1_strt, W
02E8  0084  	MOVWF FSR
02E9  0880  	MOVF INDF, F
02EA  1903  	BTFSC STATUS,Z
02EB  2AEE  	GOTO	label38
02EC  0AD2  	INCF FCI_SHEAD_00000_1_strt, F
02ED  2ADF  	GOTO	label37
02EE        label38
02EE  0850  	MOVF FCI_SHEAD_00000_arg_iDst_len, W
02EF  0252  	SUBWF FCI_SHEAD_00000_1_strt, W
02F0  1803  	BTFSC STATUS,C
02F1  2B55  	GOTO	label46
02F2  01D1  	CLRF FCI_SHEAD_00000_1_len
02F3        label39
02F3  084D  	MOVF FCI_SHEAD_00000_arg_iSrc2_len, W
02F4  0251  	SUBWF FCI_SHEAD_00000_1_len, W
02F5  1803  	BTFSC STATUS,C
02F6  2B02  	GOTO	label40
02F7  1383  	BCF STATUS,IRP
02F8  184A  	BTFSC FCI_SHEAD_00000_arg_sSrc2+D'1',0
02F9  1783  	BSF STATUS,IRP
02FA  0849  	MOVF FCI_SHEAD_00000_arg_sSrc2, W
02FB  0751  	ADDWF FCI_SHEAD_00000_1_len, W
02FC  0084  	MOVWF FSR
02FD  0880  	MOVF INDF, F
02FE  1903  	BTFSC STATUS,Z
02FF  2B02  	GOTO	label40
0300  0AD1  	INCF FCI_SHEAD_00000_1_len, F
0301  2AF3  	GOTO	label39
0302        label40
0302  0852  	MOVF FCI_SHEAD_00000_1_strt, W
0303  0250  	SUBWF FCI_SHEAD_00000_arg_iDst_len, W
0304  00D3  	MOVWF CompTempVar2115
0305  0851  	MOVF FCI_SHEAD_00000_1_len, W
0306  0253  	SUBWF CompTempVar2115, W
0307  1803  	BTFSC STATUS,C
0308  2B0C  	GOTO	label41
0309  0852  	MOVF FCI_SHEAD_00000_1_strt, W
030A  0250  	SUBWF FCI_SHEAD_00000_arg_iDst_len, W
030B  00D1  	MOVWF FCI_SHEAD_00000_1_len
030C        label41
030C  0851  	MOVF FCI_SHEAD_00000_1_len, W
030D  0752  	ADDWF FCI_SHEAD_00000_1_strt, W
030E  00CD  	MOVWF FCI_SHEAD_00000_arg_iSrc2_len
030F  0851  	MOVF FCI_SHEAD_00000_1_len, W
0310  00D2  	MOVWF FCI_SHEAD_00000_1_strt
0311        label42
0311  0852  	MOVF FCI_SHEAD_00000_1_strt, W
0312  3C00  	SUBLW 0x00
0313  1803  	BTFSC STATUS,C
0314  2B2B  	GOTO	label43
0315  03D2  	DECF FCI_SHEAD_00000_1_strt, F
0316  03CD  	DECF FCI_SHEAD_00000_arg_iSrc2_len, F
0317  1383  	BCF STATUS,IRP
0318  184A  	BTFSC FCI_SHEAD_00000_arg_sSrc2+D'1',0
0319  1783  	BSF STATUS,IRP
031A  0849  	MOVF FCI_SHEAD_00000_arg_sSrc2, W
031B  0084  	MOVWF FSR
031C  0852  	MOVF FCI_SHEAD_00000_1_strt, W
031D  00D4  	MOVWF CompTempVar2122
031E  0854  	MOVF CompTempVar2122, W
031F  0784  	ADDWF FSR, F
0320  0800  	MOVF INDF, W
0321  00D5  	MOVWF CompTempVar2123
0322  1383  	BCF STATUS,IRP
0323  184F  	BTFSC FCI_SHEAD_00000_arg_sDst+D'1',0
0324  1783  	BSF STATUS,IRP
0325  084E  	MOVF FCI_SHEAD_00000_arg_sDst, W
0326  074D  	ADDWF FCI_SHEAD_00000_arg_iSrc2_len, W
0327  0084  	MOVWF FSR
0328  0855  	MOVF CompTempVar2123, W
0329  0080  	MOVWF INDF
032A  2B11  	GOTO	label42
032B        label43
032B  01D2  	CLRF FCI_SHEAD_00000_1_strt
032C        label44
032C  0848  	MOVF FCI_SHEAD_00000_arg_iSrc1_len, W
032D  0252  	SUBWF FCI_SHEAD_00000_1_strt, W
032E  1803  	BTFSC STATUS,C
032F  2B52  	GOTO	label45
0330  0850  	MOVF FCI_SHEAD_00000_arg_iDst_len, W
0331  0252  	SUBWF FCI_SHEAD_00000_1_strt, W
0332  1803  	BTFSC STATUS,C
0333  2B52  	GOTO	label45
0334  1383  	BCF STATUS,IRP
0335  1847  	BTFSC FCI_SHEAD_00000_arg_sSrc1+D'1',0
0336  1783  	BSF STATUS,IRP
0337  0846  	MOVF FCI_SHEAD_00000_arg_sSrc1, W
0338  0752  	ADDWF FCI_SHEAD_00000_1_strt, W
0339  0084  	MOVWF FSR
033A  0880  	MOVF INDF, F
033B  1903  	BTFSC STATUS,Z
033C  2B52  	GOTO	label45
033D  1383  	BCF STATUS,IRP
033E  1847  	BTFSC FCI_SHEAD_00000_arg_sSrc1+D'1',0
033F  1783  	BSF STATUS,IRP
0340  0846  	MOVF FCI_SHEAD_00000_arg_sSrc1, W
0341  0084  	MOVWF FSR
0342  0852  	MOVF FCI_SHEAD_00000_1_strt, W
0343  00D4  	MOVWF CompTempVar2126
0344  0854  	MOVF CompTempVar2126, W
0345  0784  	ADDWF FSR, F
0346  0800  	MOVF INDF, W
0347  00D5  	MOVWF CompTempVar2127
0348  1383  	BCF STATUS,IRP
0349  184F  	BTFSC FCI_SHEAD_00000_arg_sDst+D'1',0
034A  1783  	BSF STATUS,IRP
034B  084E  	MOVF FCI_SHEAD_00000_arg_sDst, W
034C  0752  	ADDWF FCI_SHEAD_00000_1_strt, W
034D  0084  	MOVWF FSR
034E  0855  	MOVF CompTempVar2127, W
034F  0080  	MOVWF INDF
0350  0AD2  	INCF FCI_SHEAD_00000_1_strt, F
0351  2B2C  	GOTO	label44
0352        label45
0352  0852  	MOVF FCI_SHEAD_00000_1_strt, W
0353  07D1  	ADDWF FCI_SHEAD_00000_1_len, F
0354  2BDE  	GOTO	label53
0355        label46
0355  01D1  	CLRF FCI_SHEAD_00000_1_len
0356        label47
0356  0848  	MOVF FCI_SHEAD_00000_arg_iSrc1_len, W
0357  0251  	SUBWF FCI_SHEAD_00000_1_len, W
0358  1803  	BTFSC STATUS,C
0359  2BDE  	GOTO	label53
035A  0850  	MOVF FCI_SHEAD_00000_arg_iDst_len, W
035B  0251  	SUBWF FCI_SHEAD_00000_1_len, W
035C  1803  	BTFSC STATUS,C
035D  2BDE  	GOTO	label53
035E  1383  	BCF STATUS,IRP
035F  1847  	BTFSC FCI_SHEAD_00000_arg_sSrc1+D'1',0
0360  1783  	BSF STATUS,IRP
0361  0846  	MOVF FCI_SHEAD_00000_arg_sSrc1, W
0362  0751  	ADDWF FCI_SHEAD_00000_1_len, W
0363  0084  	MOVWF FSR
0364  0880  	MOVF INDF, F
0365  1903  	BTFSC STATUS,Z
0366  2BDE  	GOTO	label53
0367  1383  	BCF STATUS,IRP
0368  1847  	BTFSC FCI_SHEAD_00000_arg_sSrc1+D'1',0
0369  1783  	BSF STATUS,IRP
036A  0846  	MOVF FCI_SHEAD_00000_arg_sSrc1, W
036B  0084  	MOVWF FSR
036C  0851  	MOVF FCI_SHEAD_00000_1_len, W
036D  00D3  	MOVWF CompTempVar2134
036E  0853  	MOVF CompTempVar2134, W
036F  0784  	ADDWF FSR, F
0370  0800  	MOVF INDF, W
0371  00D4  	MOVWF CompTempVar2135
0372  1383  	BCF STATUS,IRP
0373  184F  	BTFSC FCI_SHEAD_00000_arg_sDst+D'1',0
0374  1783  	BSF STATUS,IRP
0375  084E  	MOVF FCI_SHEAD_00000_arg_sDst, W
0376  0751  	ADDWF FCI_SHEAD_00000_1_len, W
0377  0084  	MOVWF FSR
0378  0854  	MOVF CompTempVar2135, W
0379  0080  	MOVWF INDF
037A  0AD1  	INCF FCI_SHEAD_00000_1_len, F
037B  2B56  	GOTO	label47
037C        label48
037C  01D1  	CLRF FCI_SHEAD_00000_1_len
037D        label49
037D  0848  	MOVF FCI_SHEAD_00000_arg_iSrc1_len, W
037E  0251  	SUBWF FCI_SHEAD_00000_1_len, W
037F  1803  	BTFSC STATUS,C
0380  2BA3  	GOTO	label50
0381  0850  	MOVF FCI_SHEAD_00000_arg_iDst_len, W
0382  0251  	SUBWF FCI_SHEAD_00000_1_len, W
0383  1803  	BTFSC STATUS,C
0384  2BA3  	GOTO	label50
0385  1383  	BCF STATUS,IRP
0386  1847  	BTFSC FCI_SHEAD_00000_arg_sSrc1+D'1',0
0387  1783  	BSF STATUS,IRP
0388  0846  	MOVF FCI_SHEAD_00000_arg_sSrc1, W
0389  0751  	ADDWF FCI_SHEAD_00000_1_len, W
038A  0084  	MOVWF FSR
038B  0880  	MOVF INDF, F
038C  1903  	BTFSC STATUS,Z
038D  2BA3  	GOTO	label50
038E  1383  	BCF STATUS,IRP
038F  1847  	BTFSC FCI_SHEAD_00000_arg_sSrc1+D'1',0
0390  1783  	BSF STATUS,IRP
0391  0846  	MOVF FCI_SHEAD_00000_arg_sSrc1, W
0392  0084  	MOVWF FSR
0393  0851  	MOVF FCI_SHEAD_00000_1_len, W
0394  00D3  	MOVWF CompTempVar2142
0395  0853  	MOVF CompTempVar2142, W
0396  0784  	ADDWF FSR, F
0397  0800  	MOVF INDF, W
0398  00D4  	MOVWF CompTempVar2143
0399  1383  	BCF STATUS,IRP
039A  184F  	BTFSC FCI_SHEAD_00000_arg_sDst+D'1',0
039B  1783  	BSF STATUS,IRP
039C  084E  	MOVF FCI_SHEAD_00000_arg_sDst, W
039D  0751  	ADDWF FCI_SHEAD_00000_1_len, W
039E  0084  	MOVWF FSR
039F  0854  	MOVF CompTempVar2143, W
03A0  0080  	MOVWF INDF
03A1  0AD1  	INCF FCI_SHEAD_00000_1_len, F
03A2  2B7D  	GOTO	label49
03A3        label50
03A3  0850  	MOVF FCI_SHEAD_00000_arg_iDst_len, W
03A4  0251  	SUBWF FCI_SHEAD_00000_1_len, W
03A5  1803  	BTFSC STATUS,C
03A6  2BDE  	GOTO	label53
03A7  0851  	MOVF FCI_SHEAD_00000_1_len, W
03A8  074E  	ADDWF FCI_SHEAD_00000_arg_sDst, W
03A9  00D3  	MOVWF CompTempVar2148
03AA  084F  	MOVF FCI_SHEAD_00000_arg_sDst+D'1', W
03AB  00D4  	MOVWF CompTempVar2149
03AC  1803  	BTFSC STATUS,C
03AD  0AD4  	INCF CompTempVar2149, F
03AE  0853  	MOVF CompTempVar2148, W
03AF  00C6  	MOVWF FCI_SHEAD_00000_arg_sSrc1
03B0  0854  	MOVF CompTempVar2149, W
03B1  00C7  	MOVWF FCI_SHEAD_00000_arg_sSrc1+D'1'
03B2  0851  	MOVF FCI_SHEAD_00000_1_len, W
03B3  0250  	SUBWF FCI_SHEAD_00000_arg_iDst_len, W
03B4  00C8  	MOVWF FCI_SHEAD_00000_arg_iSrc1_len
03B5  01D2  	CLRF FCI_SHEAD_00000_1_strt
03B6        label51
03B6  084D  	MOVF FCI_SHEAD_00000_arg_iSrc2_len, W
03B7  0252  	SUBWF FCI_SHEAD_00000_1_strt, W
03B8  1803  	BTFSC STATUS,C
03B9  2BDC  	GOTO	label52
03BA  0848  	MOVF FCI_SHEAD_00000_arg_iSrc1_len, W
03BB  0252  	SUBWF FCI_SHEAD_00000_1_strt, W
03BC  1803  	BTFSC STATUS,C
03BD  2BDC  	GOTO	label52
03BE  1383  	BCF STATUS,IRP
03BF  184A  	BTFSC FCI_SHEAD_00000_arg_sSrc2+D'1',0
03C0  1783  	BSF STATUS,IRP
03C1  0849  	MOVF FCI_SHEAD_00000_arg_sSrc2, W
03C2  0752  	ADDWF FCI_SHEAD_00000_1_strt, W
03C3  0084  	MOVWF FSR
03C4  0880  	MOVF INDF, F
03C5  1903  	BTFSC STATUS,Z
03C6  2BDC  	GOTO	label52
03C7  1383  	BCF STATUS,IRP
03C8  184A  	BTFSC FCI_SHEAD_00000_arg_sSrc2+D'1',0
03C9  1783  	BSF STATUS,IRP
03CA  0849  	MOVF FCI_SHEAD_00000_arg_sSrc2, W
03CB  0084  	MOVWF FSR
03CC  0852  	MOVF FCI_SHEAD_00000_1_strt, W
03CD  00D3  	MOVWF CompTempVar2152
03CE  0853  	MOVF CompTempVar2152, W
03CF  0784  	ADDWF FSR, F
03D0  0800  	MOVF INDF, W
03D1  00D4  	MOVWF CompTempVar2153
03D2  1383  	BCF STATUS,IRP
03D3  1847  	BTFSC FCI_SHEAD_00000_arg_sSrc1+D'1',0
03D4  1783  	BSF STATUS,IRP
03D5  0846  	MOVF FCI_SHEAD_00000_arg_sSrc1, W
03D6  0752  	ADDWF FCI_SHEAD_00000_1_strt, W
03D7  0084  	MOVWF FSR
03D8  0854  	MOVF CompTempVar2153, W
03D9  0080  	MOVWF INDF
03DA  0AD2  	INCF FCI_SHEAD_00000_1_strt, F
03DB  2BB6  	GOTO	label51
03DC        label52
03DC  0852  	MOVF FCI_SHEAD_00000_1_strt, W
03DD  07D1  	ADDWF FCI_SHEAD_00000_1_len, F
03DE        label53
03DE  0850  	MOVF FCI_SHEAD_00000_arg_iDst_len, W
03DF  0251  	SUBWF FCI_SHEAD_00000_1_len, W
03E0  1803  	BTFSC STATUS,C
03E1  0008  	RETURN
03E2  1383  	BCF STATUS,IRP
03E3  184F  	BTFSC FCI_SHEAD_00000_arg_sDst+D'1',0
03E4  1783  	BSF STATUS,IRP
03E5  084E  	MOVF FCI_SHEAD_00000_arg_sDst, W
03E6  0751  	ADDWF FCI_SHEAD_00000_1_len, W
03E7  0084  	MOVWF FSR
03E8  3000  	MOVLW 0x00
03E9  0080  	MOVWF INDF
03EA  0008  	RETURN
03EB        ; } FCI_SHEAD function end

	ORG 0x000003EB
03EB        FCD_LCDDis_00055
03EB        ; { FCD_LCDDisplay0_RawSend ; function begin
03EB  1283  	BCF STATUS, RP0
03EC  1206  	BCF gbl_portb,4
03ED  1286  	BCF gbl_portb,5
03EE  1306  	BCF gbl_portb,6
03EF  1386  	BCF gbl_portb,7
03F0  1106  	BCF gbl_portb,2
03F1  1186  	BCF gbl_portb,3
03F2  1683  	BSF STATUS, RP0
03F3  0E5A  	SWAPF FCD_LCDDis_00055_arg_in, W
03F4  390F  	ANDLW 0x0F
03F5  00DC  	MOVWF FCD_LCDDis_00055_1_pt
03F6  300F  	MOVLW 0x0F
03F7  05DC  	ANDWF FCD_LCDDis_00055_1_pt, F
03F8  1C5C  	BTFSS FCD_LCDDis_00055_1_pt,0
03F9  2BFC  	GOTO	label54
03FA  1283  	BCF STATUS, RP0
03FB  1606  	BSF gbl_portb,4
03FC        label54
03FC  1683  	BSF STATUS, RP0
03FD  1CDC  	BTFSS FCD_LCDDis_00055_1_pt,1
03FE  2C01  	GOTO	label55
03FF  1283  	BCF STATUS, RP0
0400  1686  	BSF gbl_portb,5
0401        label55
0401  1683  	BSF STATUS, RP0
0402  1D5C  	BTFSS FCD_LCDDis_00055_1_pt,2
0403  2C06  	GOTO	label56
0404  1283  	BCF STATUS, RP0
0405  1706  	BSF gbl_portb,6
0406        label56
0406  1683  	BSF STATUS, RP0
0407  1DDC  	BTFSS FCD_LCDDis_00055_1_pt,3
0408  2C0B  	GOTO	label57
0409  1283  	BCF STATUS, RP0
040A  1786  	BSF gbl_portb,7
040B        label57
040B  1683  	BSF STATUS, RP0
040C  08DB  	MOVF FCD_LCDDis_00055_arg_mask, F
040D  1903  	BTFSC STATUS,Z
040E  2C11  	GOTO	label58
040F  1283  	BCF STATUS, RP0
0410  1506  	BSF gbl_portb,2
0411        label58
0411  300A  	MOVLW 0x0A
0412  1683  	BSF STATUS, RP0
0413  00DD  	MOVWF delay_10us_00000_arg_del
0414  2028  	CALL delay_10us_00000
0415  1283  	BCF STATUS, RP0
0416  1586  	BSF gbl_portb,3
0417  300A  	MOVLW 0x0A
0418  1683  	BSF STATUS, RP0
0419  00DD  	MOVWF delay_10us_00000_arg_del
041A  2028  	CALL delay_10us_00000
041B  1283  	BCF STATUS, RP0
041C  1186  	BCF gbl_portb,3
041D  300F  	MOVLW 0x0F
041E  1683  	BSF STATUS, RP0
041F  055A  	ANDWF FCD_LCDDis_00055_arg_in, W
0420  00DC  	MOVWF FCD_LCDDis_00055_1_pt
0421  300A  	MOVLW 0x0A
0422  00DD  	MOVWF delay_10us_00000_arg_del
0423  2028  	CALL delay_10us_00000
0424  1283  	BCF STATUS, RP0
0425  1206  	BCF gbl_portb,4
0426  1286  	BCF gbl_portb,5
0427  1306  	BCF gbl_portb,6
0428  1386  	BCF gbl_portb,7
0429  1106  	BCF gbl_portb,2
042A  1186  	BCF gbl_portb,3
042B  1683  	BSF STATUS, RP0
042C  1C5C  	BTFSS FCD_LCDDis_00055_1_pt,0
042D  2C30  	GOTO	label59
042E  1283  	BCF STATUS, RP0
042F  1606  	BSF gbl_portb,4
0430        label59
0430  1683  	BSF STATUS, RP0
0431  1CDC  	BTFSS FCD_LCDDis_00055_1_pt,1
0432  2C35  	GOTO	label60
0433  1283  	BCF STATUS, RP0
0434  1686  	BSF gbl_portb,5
0435        label60
0435  1683  	BSF STATUS, RP0
0436  1D5C  	BTFSS FCD_LCDDis_00055_1_pt,2
0437  2C3A  	GOTO	label61
0438  1283  	BCF STATUS, RP0
0439  1706  	BSF gbl_portb,6
043A        label61
043A  1683  	BSF STATUS, RP0
043B  1DDC  	BTFSS FCD_LCDDis_00055_1_pt,3
043C  2C3F  	GOTO	label62
043D  1283  	BCF STATUS, RP0
043E  1786  	BSF gbl_portb,7
043F        label62
043F  1683  	BSF STATUS, RP0
0440  08DB  	MOVF FCD_LCDDis_00055_arg_mask, F
0441  1903  	BTFSC STATUS,Z
0442  2C45  	GOTO	label63
0443  1283  	BCF STATUS, RP0
0444  1506  	BSF gbl_portb,2
0445        label63
0445  300A  	MOVLW 0x0A
0446  1683  	BSF STATUS, RP0
0447  00DD  	MOVWF delay_10us_00000_arg_del
0448  2028  	CALL delay_10us_00000
0449  1283  	BCF STATUS, RP0
044A  1586  	BSF gbl_portb,3
044B  300A  	MOVLW 0x0A
044C  1683  	BSF STATUS, RP0
044D  00DD  	MOVWF delay_10us_00000_arg_del
044E  2028  	CALL delay_10us_00000
044F  1283  	BCF STATUS, RP0
0450  1186  	BCF gbl_portb,3
0451  300A  	MOVLW 0x0A
0452  1683  	BSF STATUS, RP0
0453  00DD  	MOVWF delay_10us_00000_arg_del
0454  2028  	CALL delay_10us_00000
0455  0008  	RETURN
0456        ; } FCD_LCDDisplay0_RawSend function end

	ORG 0x00000456
0456        FCD_EEPROM_00054
0456        ; { FCD_EEPROM0_WriteEEPROM ; function begin
0456  0846  	MOVF FCD_EEPROM_00054_arg_addr, W
0457  00CA  	MOVWF FC_CAL_EE__00064_arg_Address
0458  0847  	MOVF FCD_EEPROM_00054_arg_addr+D'1', W
0459  00CB  	MOVWF FC_CAL_EE__00064_arg_Address+D'1'
045A  0848  	MOVF FCD_EEPROM_00054_arg_data, W
045B  00CC  	MOVWF FC_CAL_EE__00064_arg_Data
045C  20FF  	CALL FC_CAL_EE__00064
045D  0008  	RETURN
045E        ; } FCD_EEPROM0_WriteEEPROM function end

	ORG 0x0000045E
045E        FCD_EEPROM_00052
045E        ; { FCD_EEPROM0_EEPROMRead ; function begin
045E  0846  	MOVF FCD_EEPROM_00052_arg_addr, W
045F  00C8  	MOVWF FC_CAL_EE__00063_arg_Address
0460  0847  	MOVF FCD_EEPROM_00052_arg_addr+D'1', W
0461  00C9  	MOVWF FC_CAL_EE__00063_arg_Address+D'1'
0462  2125  	CALL FC_CAL_EE__00063
0463  084B  	MOVF CompTempVarRet2319, W
0464  00C8  	MOVWF CompTempVarRet2218
0465  01C9  	CLRF CompTempVarRet2218+D'1'
0466  0008  	RETURN
0467        ; } FCD_EEPROM0_EEPROMRead function end

	ORG 0x00000467
0467        FCM_upisiv_00053
0467        ; { FCM_upisivanje_sifre ; function begin
0467  3000  	MOVLW HIGH(gbl_FCV_GLAVNA_SIFRA_STRING+D'0')
0468  1683  	BSF STATUS, RP0
0469  1303  	BCF STATUS, RP1
046A  00C7  	MOVWF FCI_STRING_0004F_arg_String+D'1'
046B  3034  	MOVLW LOW(gbl_FCV_GLAVNA_SIFRA_STRING+D'0')
046C  00C6  	MOVWF FCI_STRING_0004F_arg_String
046D  3014  	MOVLW 0x14
046E  00C8  	MOVWF FCI_STRING_0004F_arg_MSZ_String
046F  223E  	CALL FCI_STRING_0004F
0470  0850  	MOVF CompTempVarRet2061, W
0471  00A8  	MOVWF gbl_FCV_GLAVNA_SIFRA
0472  0851  	MOVF CompTempVarRet2061+D'1', W
0473  00A9  	MOVWF gbl_FCV_GLAVNA_SIFRA+D'1'
0474  0852  	MOVF CompTempVarRet2061+D'2', W
0475  00AA  	MOVWF gbl_FCV_GLAVNA_SIFRA+D'2'
0476  0853  	MOVF CompTempVarRet2061+D'3', W
0477  00AB  	MOVWF gbl_FCV_GLAVNA_SIFRA+D'3'
0478  0828  	MOVF gbl_FCV_GLAVNA_SIFRA, W
0479  00D4  	MOVWF __div_32_3_00001_arg_a
047A  0829  	MOVF gbl_FCV_GLAVNA_SIFRA+D'1', W
047B  00D5  	MOVWF __div_32_3_00001_arg_a+D'1'
047C  082A  	MOVF gbl_FCV_GLAVNA_SIFRA+D'2', W
047D  00D6  	MOVWF __div_32_3_00001_arg_a+D'2'
047E  082B  	MOVF gbl_FCV_GLAVNA_SIFRA+D'3', W
047F  00D7  	MOVWF __div_32_3_00001_arg_a+D'3'
0480  3010  	MOVLW 0x10
0481  00D8  	MOVWF __div_32_3_00001_arg_b
0482  3027  	MOVLW 0x27
0483  00D9  	MOVWF __div_32_3_00001_arg_b+D'1'
0484  01DA  	CLRF __div_32_3_00001_arg_b+D'2'
0485  01DB  	CLRF __div_32_3_00001_arg_b+D'3'
0486  20C6  	CALL __div_32_3_00001
0487  0861  	MOVF CompTempVarRet210, W
0488  00AE  	MOVWF gbl_FCV_POM2
0489  0862  	MOVF CompTempVarRet210+D'1', W
048A  00AF  	MOVWF gbl_FCV_POM2+D'1'
048B  0828  	MOVF gbl_FCV_GLAVNA_SIFRA, W
048C  00C6  	MOVWF __rem_32_3_00002_arg_a
048D  0829  	MOVF gbl_FCV_GLAVNA_SIFRA+D'1', W
048E  00C7  	MOVWF __rem_32_3_00002_arg_a+D'1'
048F  082A  	MOVF gbl_FCV_GLAVNA_SIFRA+D'2', W
0490  00C8  	MOVWF __rem_32_3_00002_arg_a+D'2'
0491  082B  	MOVF gbl_FCV_GLAVNA_SIFRA+D'3', W
0492  00C9  	MOVWF __rem_32_3_00002_arg_a+D'3'
0493  300A  	MOVLW 0x0A
0494  00CA  	MOVWF __rem_32_3_00002_arg_b
0495  01CB  	CLRF __rem_32_3_00002_arg_b+D'1'
0496  01CC  	CLRF __rem_32_3_00002_arg_b+D'2'
0497  01CD  	CLRF __rem_32_3_00002_arg_b+D'3'
0498  2135  	CALL __rem_32_3_00002
0499  0853  	MOVF CompTempVarRet212, W
049A  00B0  	MOVWF gbl_FCV_POM
049B  0854  	MOVF CompTempVarRet212+D'1', W
049C  00B1  	MOVWF gbl_FCV_POM+D'1'
049D  0828  	MOVF gbl_FCV_GLAVNA_SIFRA, W
049E  00D4  	MOVWF __div_32_3_00001_arg_a
049F  0829  	MOVF gbl_FCV_GLAVNA_SIFRA+D'1', W
04A0  00D5  	MOVWF __div_32_3_00001_arg_a+D'1'
04A1  082A  	MOVF gbl_FCV_GLAVNA_SIFRA+D'2', W
04A2  00D6  	MOVWF __div_32_3_00001_arg_a+D'2'
04A3  082B  	MOVF gbl_FCV_GLAVNA_SIFRA+D'3', W
04A4  00D7  	MOVWF __div_32_3_00001_arg_a+D'3'
04A5  300A  	MOVLW 0x0A
04A6  00D8  	MOVWF __div_32_3_00001_arg_b
04A7  01D9  	CLRF __div_32_3_00001_arg_b+D'1'
04A8  01DA  	CLRF __div_32_3_00001_arg_b+D'2'
04A9  01DB  	CLRF __div_32_3_00001_arg_b+D'3'
04AA  20C6  	CALL __div_32_3_00001
04AB  0861  	MOVF CompTempVarRet210, W
04AC  00A8  	MOVWF gbl_FCV_GLAVNA_SIFRA
04AD  0862  	MOVF CompTempVarRet210+D'1', W
04AE  00A9  	MOVWF gbl_FCV_GLAVNA_SIFRA+D'1'
04AF  0863  	MOVF CompTempVarRet210+D'2', W
04B0  00AA  	MOVWF gbl_FCV_GLAVNA_SIFRA+D'2'
04B1  0864  	MOVF CompTempVarRet210+D'3', W
04B2  00AB  	MOVWF gbl_FCV_GLAVNA_SIFRA+D'3'
04B3  3004  	MOVLW 0x04
04B4  00C6  	MOVWF FCD_EEPROM_00054_arg_addr
04B5  01C7  	CLRF FCD_EEPROM_00054_arg_addr+D'1'
04B6  0830  	MOVF gbl_FCV_POM, W
04B7  00C8  	MOVWF FCD_EEPROM_00054_arg_data
04B8  0831  	MOVF gbl_FCV_POM+D'1', W
04B9  00C9  	MOVWF FCD_EEPROM_00054_arg_data+D'1'
04BA  2456  	CALL FCD_EEPROM_00054
04BB  3014  	MOVLW 0x14
04BC  1303  	BCF STATUS, RP1
04BD  00CA  	MOVWF delay_ms_00000_arg_del
04BE  2010  	CALL delay_ms_00000
04BF  0828  	MOVF gbl_FCV_GLAVNA_SIFRA, W
04C0  00C6  	MOVWF __rem_32_3_00002_arg_a
04C1  0829  	MOVF gbl_FCV_GLAVNA_SIFRA+D'1', W
04C2  00C7  	MOVWF __rem_32_3_00002_arg_a+D'1'
04C3  082A  	MOVF gbl_FCV_GLAVNA_SIFRA+D'2', W
04C4  00C8  	MOVWF __rem_32_3_00002_arg_a+D'2'
04C5  082B  	MOVF gbl_FCV_GLAVNA_SIFRA+D'3', W
04C6  00C9  	MOVWF __rem_32_3_00002_arg_a+D'3'
04C7  300A  	MOVLW 0x0A
04C8  00CA  	MOVWF __rem_32_3_00002_arg_b
04C9  01CB  	CLRF __rem_32_3_00002_arg_b+D'1'
04CA  01CC  	CLRF __rem_32_3_00002_arg_b+D'2'
04CB  01CD  	CLRF __rem_32_3_00002_arg_b+D'3'
04CC  2135  	CALL __rem_32_3_00002
04CD  0853  	MOVF CompTempVarRet212, W
04CE  00B0  	MOVWF gbl_FCV_POM
04CF  0854  	MOVF CompTempVarRet212+D'1', W
04D0  00B1  	MOVWF gbl_FCV_POM+D'1'
04D1  0828  	MOVF gbl_FCV_GLAVNA_SIFRA, W
04D2  00D4  	MOVWF __div_32_3_00001_arg_a
04D3  0829  	MOVF gbl_FCV_GLAVNA_SIFRA+D'1', W
04D4  00D5  	MOVWF __div_32_3_00001_arg_a+D'1'
04D5  082A  	MOVF gbl_FCV_GLAVNA_SIFRA+D'2', W
04D6  00D6  	MOVWF __div_32_3_00001_arg_a+D'2'
04D7  082B  	MOVF gbl_FCV_GLAVNA_SIFRA+D'3', W
04D8  00D7  	MOVWF __div_32_3_00001_arg_a+D'3'
04D9  300A  	MOVLW 0x0A
04DA  00D8  	MOVWF __div_32_3_00001_arg_b
04DB  01D9  	CLRF __div_32_3_00001_arg_b+D'1'
04DC  01DA  	CLRF __div_32_3_00001_arg_b+D'2'
04DD  01DB  	CLRF __div_32_3_00001_arg_b+D'3'
04DE  20C6  	CALL __div_32_3_00001
04DF  0861  	MOVF CompTempVarRet210, W
04E0  00A8  	MOVWF gbl_FCV_GLAVNA_SIFRA
04E1  0862  	MOVF CompTempVarRet210+D'1', W
04E2  00A9  	MOVWF gbl_FCV_GLAVNA_SIFRA+D'1'
04E3  0863  	MOVF CompTempVarRet210+D'2', W
04E4  00AA  	MOVWF gbl_FCV_GLAVNA_SIFRA+D'2'
04E5  0864  	MOVF CompTempVarRet210+D'3', W
04E6  00AB  	MOVWF gbl_FCV_GLAVNA_SIFRA+D'3'
04E7  3003  	MOVLW 0x03
04E8  00C6  	MOVWF FCD_EEPROM_00054_arg_addr
04E9  01C7  	CLRF FCD_EEPROM_00054_arg_addr+D'1'
04EA  0830  	MOVF gbl_FCV_POM, W
04EB  00C8  	MOVWF FCD_EEPROM_00054_arg_data
04EC  0831  	MOVF gbl_FCV_POM+D'1', W
04ED  00C9  	MOVWF FCD_EEPROM_00054_arg_data+D'1'
04EE  2456  	CALL FCD_EEPROM_00054
04EF  3014  	MOVLW 0x14
04F0  1303  	BCF STATUS, RP1
04F1  00CA  	MOVWF delay_ms_00000_arg_del
04F2  2010  	CALL delay_ms_00000
04F3  0828  	MOVF gbl_FCV_GLAVNA_SIFRA, W
04F4  00C6  	MOVWF __rem_32_3_00002_arg_a
04F5  0829  	MOVF gbl_FCV_GLAVNA_SIFRA+D'1', W
04F6  00C7  	MOVWF __rem_32_3_00002_arg_a+D'1'
04F7  082A  	MOVF gbl_FCV_GLAVNA_SIFRA+D'2', W
04F8  00C8  	MOVWF __rem_32_3_00002_arg_a+D'2'
04F9  082B  	MOVF gbl_FCV_GLAVNA_SIFRA+D'3', W
04FA  00C9  	MOVWF __rem_32_3_00002_arg_a+D'3'
04FB  300A  	MOVLW 0x0A
04FC  00CA  	MOVWF __rem_32_3_00002_arg_b
04FD  01CB  	CLRF __rem_32_3_00002_arg_b+D'1'
04FE  01CC  	CLRF __rem_32_3_00002_arg_b+D'2'
04FF  01CD  	CLRF __rem_32_3_00002_arg_b+D'3'
0500  2135  	CALL __rem_32_3_00002
0501  0853  	MOVF CompTempVarRet212, W
0502  00B0  	MOVWF gbl_FCV_POM
0503  0854  	MOVF CompTempVarRet212+D'1', W
0504  00B1  	MOVWF gbl_FCV_POM+D'1'
0505  0828  	MOVF gbl_FCV_GLAVNA_SIFRA, W
0506  00D4  	MOVWF __div_32_3_00001_arg_a
0507  0829  	MOVF gbl_FCV_GLAVNA_SIFRA+D'1', W
0508  00D5  	MOVWF __div_32_3_00001_arg_a+D'1'
0509  082A  	MOVF gbl_FCV_GLAVNA_SIFRA+D'2', W
050A  00D6  	MOVWF __div_32_3_00001_arg_a+D'2'
050B  082B  	MOVF gbl_FCV_GLAVNA_SIFRA+D'3', W
050C  00D7  	MOVWF __div_32_3_00001_arg_a+D'3'
050D  300A  	MOVLW 0x0A
050E  00D8  	MOVWF __div_32_3_00001_arg_b
050F  01D9  	CLRF __div_32_3_00001_arg_b+D'1'
0510  01DA  	CLRF __div_32_3_00001_arg_b+D'2'
0511  01DB  	CLRF __div_32_3_00001_arg_b+D'3'
0512  20C6  	CALL __div_32_3_00001
0513  0861  	MOVF CompTempVarRet210, W
0514  00A8  	MOVWF gbl_FCV_GLAVNA_SIFRA
0515  0862  	MOVF CompTempVarRet210+D'1', W
0516  00A9  	MOVWF gbl_FCV_GLAVNA_SIFRA+D'1'
0517  0863  	MOVF CompTempVarRet210+D'2', W
0518  00AA  	MOVWF gbl_FCV_GLAVNA_SIFRA+D'2'
0519  0864  	MOVF CompTempVarRet210+D'3', W
051A  00AB  	MOVWF gbl_FCV_GLAVNA_SIFRA+D'3'
051B  3002  	MOVLW 0x02
051C  00C6  	MOVWF FCD_EEPROM_00054_arg_addr
051D  01C7  	CLRF FCD_EEPROM_00054_arg_addr+D'1'
051E  0830  	MOVF gbl_FCV_POM, W
051F  00C8  	MOVWF FCD_EEPROM_00054_arg_data
0520  0831  	MOVF gbl_FCV_POM+D'1', W
0521  00C9  	MOVWF FCD_EEPROM_00054_arg_data+D'1'
0522  2456  	CALL FCD_EEPROM_00054
0523  3014  	MOVLW 0x14
0524  1303  	BCF STATUS, RP1
0525  00CA  	MOVWF delay_ms_00000_arg_del
0526  2010  	CALL delay_ms_00000
0527  0828  	MOVF gbl_FCV_GLAVNA_SIFRA, W
0528  00C6  	MOVWF __rem_32_3_00002_arg_a
0529  0829  	MOVF gbl_FCV_GLAVNA_SIFRA+D'1', W
052A  00C7  	MOVWF __rem_32_3_00002_arg_a+D'1'
052B  082A  	MOVF gbl_FCV_GLAVNA_SIFRA+D'2', W
052C  00C8  	MOVWF __rem_32_3_00002_arg_a+D'2'
052D  082B  	MOVF gbl_FCV_GLAVNA_SIFRA+D'3', W
052E  00C9  	MOVWF __rem_32_3_00002_arg_a+D'3'
052F  300A  	MOVLW 0x0A
0530  00CA  	MOVWF __rem_32_3_00002_arg_b
0531  01CB  	CLRF __rem_32_3_00002_arg_b+D'1'
0532  01CC  	CLRF __rem_32_3_00002_arg_b+D'2'
0533  01CD  	CLRF __rem_32_3_00002_arg_b+D'3'
0534  2135  	CALL __rem_32_3_00002
0535  0853  	MOVF CompTempVarRet212, W
0536  00B0  	MOVWF gbl_FCV_POM
0537  0854  	MOVF CompTempVarRet212+D'1', W
0538  00B1  	MOVWF gbl_FCV_POM+D'1'
0539  0828  	MOVF gbl_FCV_GLAVNA_SIFRA, W
053A  00D4  	MOVWF __div_32_3_00001_arg_a
053B  0829  	MOVF gbl_FCV_GLAVNA_SIFRA+D'1', W
053C  00D5  	MOVWF __div_32_3_00001_arg_a+D'1'
053D  082A  	MOVF gbl_FCV_GLAVNA_SIFRA+D'2', W
053E  00D6  	MOVWF __div_32_3_00001_arg_a+D'2'
053F  082B  	MOVF gbl_FCV_GLAVNA_SIFRA+D'3', W
0540  00D7  	MOVWF __div_32_3_00001_arg_a+D'3'
0541  300A  	MOVLW 0x0A
0542  00D8  	MOVWF __div_32_3_00001_arg_b
0543  01D9  	CLRF __div_32_3_00001_arg_b+D'1'
0544  01DA  	CLRF __div_32_3_00001_arg_b+D'2'
0545  01DB  	CLRF __div_32_3_00001_arg_b+D'3'
0546  20C6  	CALL __div_32_3_00001
0547  0861  	MOVF CompTempVarRet210, W
0548  00A8  	MOVWF gbl_FCV_GLAVNA_SIFRA
0549  0862  	MOVF CompTempVarRet210+D'1', W
054A  00A9  	MOVWF gbl_FCV_GLAVNA_SIFRA+D'1'
054B  0863  	MOVF CompTempVarRet210+D'2', W
054C  00AA  	MOVWF gbl_FCV_GLAVNA_SIFRA+D'2'
054D  0864  	MOVF CompTempVarRet210+D'3', W
054E  00AB  	MOVWF gbl_FCV_GLAVNA_SIFRA+D'3'
054F  3001  	MOVLW 0x01
0550  00C6  	MOVWF FCD_EEPROM_00054_arg_addr
0551  01C7  	CLRF FCD_EEPROM_00054_arg_addr+D'1'
0552  0830  	MOVF gbl_FCV_POM, W
0553  00C8  	MOVWF FCD_EEPROM_00054_arg_data
0554  0831  	MOVF gbl_FCV_POM+D'1', W
0555  00C9  	MOVWF FCD_EEPROM_00054_arg_data+D'1'
0556  2456  	CALL FCD_EEPROM_00054
0557  3014  	MOVLW 0x14
0558  1303  	BCF STATUS, RP1
0559  00CA  	MOVWF delay_ms_00000_arg_del
055A  2010  	CALL delay_ms_00000
055B  0828  	MOVF gbl_FCV_GLAVNA_SIFRA, W
055C  00C6  	MOVWF __rem_32_3_00002_arg_a
055D  0829  	MOVF gbl_FCV_GLAVNA_SIFRA+D'1', W
055E  00C7  	MOVWF __rem_32_3_00002_arg_a+D'1'
055F  082A  	MOVF gbl_FCV_GLAVNA_SIFRA+D'2', W
0560  00C8  	MOVWF __rem_32_3_00002_arg_a+D'2'
0561  082B  	MOVF gbl_FCV_GLAVNA_SIFRA+D'3', W
0562  00C9  	MOVWF __rem_32_3_00002_arg_a+D'3'
0563  300A  	MOVLW 0x0A
0564  00CA  	MOVWF __rem_32_3_00002_arg_b
0565  01CB  	CLRF __rem_32_3_00002_arg_b+D'1'
0566  01CC  	CLRF __rem_32_3_00002_arg_b+D'2'
0567  01CD  	CLRF __rem_32_3_00002_arg_b+D'3'
0568  2135  	CALL __rem_32_3_00002
0569  0853  	MOVF CompTempVarRet212, W
056A  00B0  	MOVWF gbl_FCV_POM
056B  0854  	MOVF CompTempVarRet212+D'1', W
056C  00B1  	MOVWF gbl_FCV_POM+D'1'
056D  0828  	MOVF gbl_FCV_GLAVNA_SIFRA, W
056E  00D4  	MOVWF __div_32_3_00001_arg_a
056F  0829  	MOVF gbl_FCV_GLAVNA_SIFRA+D'1', W
0570  00D5  	MOVWF __div_32_3_00001_arg_a+D'1'
0571  082A  	MOVF gbl_FCV_GLAVNA_SIFRA+D'2', W
0572  00D6  	MOVWF __div_32_3_00001_arg_a+D'2'
0573  082B  	MOVF gbl_FCV_GLAVNA_SIFRA+D'3', W
0574  00D7  	MOVWF __div_32_3_00001_arg_a+D'3'
0575  300A  	MOVLW 0x0A
0576  00D8  	MOVWF __div_32_3_00001_arg_b
0577  01D9  	CLRF __div_32_3_00001_arg_b+D'1'
0578  01DA  	CLRF __div_32_3_00001_arg_b+D'2'
0579  01DB  	CLRF __div_32_3_00001_arg_b+D'3'
057A  20C6  	CALL __div_32_3_00001
057B  0861  	MOVF CompTempVarRet210, W
057C  00A8  	MOVWF gbl_FCV_GLAVNA_SIFRA
057D  0862  	MOVF CompTempVarRet210+D'1', W
057E  00A9  	MOVWF gbl_FCV_GLAVNA_SIFRA+D'1'
057F  0863  	MOVF CompTempVarRet210+D'2', W
0580  00AA  	MOVWF gbl_FCV_GLAVNA_SIFRA+D'2'
0581  0864  	MOVF CompTempVarRet210+D'3', W
0582  00AB  	MOVWF gbl_FCV_GLAVNA_SIFRA+D'3'
0583  01C6  	CLRF FCD_EEPROM_00054_arg_addr
0584  01C7  	CLRF FCD_EEPROM_00054_arg_addr+D'1'
0585  0830  	MOVF gbl_FCV_POM, W
0586  00C8  	MOVWF FCD_EEPROM_00054_arg_data
0587  0831  	MOVF gbl_FCV_POM+D'1', W
0588  00C9  	MOVWF FCD_EEPROM_00054_arg_data+D'1'
0589  2456  	CALL FCD_EEPROM_00054
058A  3014  	MOVLW 0x14
058B  1303  	BCF STATUS, RP1
058C  00CA  	MOVWF delay_ms_00000_arg_del
058D  2010  	CALL delay_ms_00000
058E  0828  	MOVF gbl_FCV_GLAVNA_SIFRA, W
058F  00B0  	MOVWF gbl_FCV_POM
0590  0829  	MOVF gbl_FCV_GLAVNA_SIFRA+D'1', W
0591  00B1  	MOVWF gbl_FCV_POM+D'1'
0592  01C6  	CLRF FCD_EEPROM_00054_arg_addr
0593  01C7  	CLRF FCD_EEPROM_00054_arg_addr+D'1'
0594  082E  	MOVF gbl_FCV_POM2, W
0595  00C8  	MOVWF FCD_EEPROM_00054_arg_data
0596  082F  	MOVF gbl_FCV_POM2+D'1', W
0597  00C9  	MOVWF FCD_EEPROM_00054_arg_data+D'1'
0598  2456  	CALL FCD_EEPROM_00054
0599  1303  	BCF STATUS, RP1
059A  103D  	BCF gbl_FCV_NOVI,0
059B  0008  	RETURN
059C        ; } FCM_upisivanje_sifre function end

	ORG 0x0000059C
059C        FCM_ucitav_00051
059C        ; { FCM_ucitavanje_sifre ; function begin
059C  1683  	BSF STATUS, RP0
059D  1303  	BCF STATUS, RP1
059E  01C6  	CLRF FCD_EEPROM_00052_arg_addr
059F  01C7  	CLRF FCD_EEPROM_00052_arg_addr+D'1'
05A0  245E  	CALL FCD_EEPROM_00052
05A1  0848  	MOVF CompTempVarRet2218, W
05A2  00B2  	MOVWF gbl_FCV_VALUE
05A3  0849  	MOVF CompTempVarRet2218+D'1', W
05A4  00B3  	MOVWF gbl_FCV_VALUE+D'1'
05A5  3014  	MOVLW 0x14
05A6  00CA  	MOVWF delay_ms_00000_arg_del
05A7  2010  	CALL delay_ms_00000
05A8  0832  	MOVF gbl_FCV_VALUE, W
05A9  00C6  	MOVWF FCI_TOSTRI_00049_arg_iSrc1
05AA  0833  	MOVF gbl_FCV_VALUE+D'1', W
05AB  00C7  	MOVWF FCI_TOSTRI_00049_arg_iSrc1+D'1'
05AC  01C8  	CLRF FCI_TOSTRI_00049_arg_iSrc1+D'2'
05AD  01C9  	CLRF FCI_TOSTRI_00049_arg_iSrc1+D'3'
05AE  3000  	MOVLW HIGH(gbl_FCV_VALUE_STRING+D'0')
05AF  00CB  	MOVWF FCI_TOSTRI_00049_arg_sDst+D'1'
05B0  305C  	MOVLW LOW(gbl_FCV_VALUE_STRING+D'0')
05B1  00CA  	MOVWF FCI_TOSTRI_00049_arg_sDst
05B2  3014  	MOVLW 0x14
05B3  00CC  	MOVWF FCI_TOSTRI_00049_arg_iDst_len
05B4  2179  	CALL FCI_TOSTRI_00049
05B5  3000  	MOVLW HIGH(gbl_FCV_UPISANA_SIFRA+D'0')
05B6  00C7  	MOVWF FCI_SHEAD_00000_arg_sSrc1+D'1'
05B7  3020  	MOVLW LOW(gbl_FCV_UPISANA_SIFRA+D'0')
05B8  00C6  	MOVWF FCI_SHEAD_00000_arg_sSrc1
05B9  3014  	MOVLW 0x14
05BA  00C8  	MOVWF FCI_SHEAD_00000_arg_iSrc1_len
05BB  3000  	MOVLW HIGH(gbl_FCV_VALUE_STRING+D'0')
05BC  00CA  	MOVWF FCI_SHEAD_00000_arg_sSrc2+D'1'
05BD  305C  	MOVLW LOW(gbl_FCV_VALUE_STRING+D'0')
05BE  00C9  	MOVWF FCI_SHEAD_00000_arg_sSrc2
05BF  3014  	MOVLW 0x14
05C0  00CD  	MOVWF FCI_SHEAD_00000_arg_iSrc2_len
05C1  3000  	MOVLW HIGH(gbl_FCV_UPISANA_SIFRA+D'0')
05C2  00CF  	MOVWF FCI_SHEAD_00000_arg_sDst+D'1'
05C3  3020  	MOVLW LOW(gbl_FCV_UPISANA_SIFRA+D'0')
05C4  00CE  	MOVWF FCI_SHEAD_00000_arg_sDst
05C5  3014  	MOVLW 0x14
05C6  00D0  	MOVWF FCI_SHEAD_00000_arg_iDst_len
05C7  22D5  	CALL FCI_SHEAD_00000
05C8  3001  	MOVLW 0x01
05C9  00C6  	MOVWF FCD_EEPROM_00052_arg_addr
05CA  01C7  	CLRF FCD_EEPROM_00052_arg_addr+D'1'
05CB  245E  	CALL FCD_EEPROM_00052
05CC  0848  	MOVF CompTempVarRet2218, W
05CD  00B2  	MOVWF gbl_FCV_VALUE
05CE  0849  	MOVF CompTempVarRet2218+D'1', W
05CF  00B3  	MOVWF gbl_FCV_VALUE+D'1'
05D0  3014  	MOVLW 0x14
05D1  00CA  	MOVWF delay_ms_00000_arg_del
05D2  2010  	CALL delay_ms_00000
05D3  0832  	MOVF gbl_FCV_VALUE, W
05D4  00C6  	MOVWF FCI_TOSTRI_00049_arg_iSrc1
05D5  0833  	MOVF gbl_FCV_VALUE+D'1', W
05D6  00C7  	MOVWF FCI_TOSTRI_00049_arg_iSrc1+D'1'
05D7  01C8  	CLRF FCI_TOSTRI_00049_arg_iSrc1+D'2'
05D8  01C9  	CLRF FCI_TOSTRI_00049_arg_iSrc1+D'3'
05D9  3000  	MOVLW HIGH(gbl_FCV_VALUE_STRING+D'0')
05DA  00CB  	MOVWF FCI_TOSTRI_00049_arg_sDst+D'1'
05DB  305C  	MOVLW LOW(gbl_FCV_VALUE_STRING+D'0')
05DC  00CA  	MOVWF FCI_TOSTRI_00049_arg_sDst
05DD  3014  	MOVLW 0x14
05DE  00CC  	MOVWF FCI_TOSTRI_00049_arg_iDst_len
05DF  2179  	CALL FCI_TOSTRI_00049
05E0  3000  	MOVLW HIGH(gbl_FCV_UPISANA_SIFRA+D'0')
05E1  00C7  	MOVWF FCI_SHEAD_00000_arg_sSrc1+D'1'
05E2  3020  	MOVLW LOW(gbl_FCV_UPISANA_SIFRA+D'0')
05E3  00C6  	MOVWF FCI_SHEAD_00000_arg_sSrc1
05E4  3014  	MOVLW 0x14
05E5  00C8  	MOVWF FCI_SHEAD_00000_arg_iSrc1_len
05E6  3000  	MOVLW HIGH(gbl_FCV_VALUE_STRING+D'0')
05E7  00CA  	MOVWF FCI_SHEAD_00000_arg_sSrc2+D'1'
05E8  305C  	MOVLW LOW(gbl_FCV_VALUE_STRING+D'0')
05E9  00C9  	MOVWF FCI_SHEAD_00000_arg_sSrc2
05EA  3014  	MOVLW 0x14
05EB  00CD  	MOVWF FCI_SHEAD_00000_arg_iSrc2_len
05EC  3000  	MOVLW HIGH(gbl_FCV_UPISANA_SIFRA+D'0')
05ED  00CF  	MOVWF FCI_SHEAD_00000_arg_sDst+D'1'
05EE  3020  	MOVLW LOW(gbl_FCV_UPISANA_SIFRA+D'0')
05EF  00CE  	MOVWF FCI_SHEAD_00000_arg_sDst
05F0  3014  	MOVLW 0x14
05F1  00D0  	MOVWF FCI_SHEAD_00000_arg_iDst_len
05F2  22D5  	CALL FCI_SHEAD_00000
05F3  3002  	MOVLW 0x02
05F4  00C6  	MOVWF FCD_EEPROM_00052_arg_addr
05F5  01C7  	CLRF FCD_EEPROM_00052_arg_addr+D'1'
05F6  245E  	CALL FCD_EEPROM_00052
05F7  0848  	MOVF CompTempVarRet2218, W
05F8  00B2  	MOVWF gbl_FCV_VALUE
05F9  0849  	MOVF CompTempVarRet2218+D'1', W
05FA  00B3  	MOVWF gbl_FCV_VALUE+D'1'
05FB  3014  	MOVLW 0x14
05FC  00CA  	MOVWF delay_ms_00000_arg_del
05FD  2010  	CALL delay_ms_00000
05FE  0832  	MOVF gbl_FCV_VALUE, W
05FF  00C6  	MOVWF FCI_TOSTRI_00049_arg_iSrc1
0600  0833  	MOVF gbl_FCV_VALUE+D'1', W
0601  00C7  	MOVWF FCI_TOSTRI_00049_arg_iSrc1+D'1'
0602  01C8  	CLRF FCI_TOSTRI_00049_arg_iSrc1+D'2'
0603  01C9  	CLRF FCI_TOSTRI_00049_arg_iSrc1+D'3'
0604  3000  	MOVLW HIGH(gbl_FCV_VALUE_STRING+D'0')
0605  00CB  	MOVWF FCI_TOSTRI_00049_arg_sDst+D'1'
0606  305C  	MOVLW LOW(gbl_FCV_VALUE_STRING+D'0')
0607  00CA  	MOVWF FCI_TOSTRI_00049_arg_sDst
0608  3014  	MOVLW 0x14
0609  00CC  	MOVWF FCI_TOSTRI_00049_arg_iDst_len
060A  2179  	CALL FCI_TOSTRI_00049
060B  3000  	MOVLW HIGH(gbl_FCV_UPISANA_SIFRA+D'0')
060C  00C7  	MOVWF FCI_SHEAD_00000_arg_sSrc1+D'1'
060D  3020  	MOVLW LOW(gbl_FCV_UPISANA_SIFRA+D'0')
060E  00C6  	MOVWF FCI_SHEAD_00000_arg_sSrc1
060F  3014  	MOVLW 0x14
0610  00C8  	MOVWF FCI_SHEAD_00000_arg_iSrc1_len
0611  3000  	MOVLW HIGH(gbl_FCV_VALUE_STRING+D'0')
0612  00CA  	MOVWF FCI_SHEAD_00000_arg_sSrc2+D'1'
0613  305C  	MOVLW LOW(gbl_FCV_VALUE_STRING+D'0')
0614  00C9  	MOVWF FCI_SHEAD_00000_arg_sSrc2
0615  3014  	MOVLW 0x14
0616  00CD  	MOVWF FCI_SHEAD_00000_arg_iSrc2_len
0617  3000  	MOVLW HIGH(gbl_FCV_UPISANA_SIFRA+D'0')
0618  00CF  	MOVWF FCI_SHEAD_00000_arg_sDst+D'1'
0619  3020  	MOVLW LOW(gbl_FCV_UPISANA_SIFRA+D'0')
061A  00CE  	MOVWF FCI_SHEAD_00000_arg_sDst
061B  3014  	MOVLW 0x14
061C  00D0  	MOVWF FCI_SHEAD_00000_arg_iDst_len
061D  22D5  	CALL FCI_SHEAD_00000
061E  3003  	MOVLW 0x03
061F  00C6  	MOVWF FCD_EEPROM_00052_arg_addr
0620  01C7  	CLRF FCD_EEPROM_00052_arg_addr+D'1'
0621  245E  	CALL FCD_EEPROM_00052
0622  0848  	MOVF CompTempVarRet2218, W
0623  00B2  	MOVWF gbl_FCV_VALUE
0624  0849  	MOVF CompTempVarRet2218+D'1', W
0625  00B3  	MOVWF gbl_FCV_VALUE+D'1'
0626  3014  	MOVLW 0x14
0627  00CA  	MOVWF delay_ms_00000_arg_del
0628  2010  	CALL delay_ms_00000
0629  0832  	MOVF gbl_FCV_VALUE, W
062A  00C6  	MOVWF FCI_TOSTRI_00049_arg_iSrc1
062B  0833  	MOVF gbl_FCV_VALUE+D'1', W
062C  00C7  	MOVWF FCI_TOSTRI_00049_arg_iSrc1+D'1'
062D  01C8  	CLRF FCI_TOSTRI_00049_arg_iSrc1+D'2'
062E  01C9  	CLRF FCI_TOSTRI_00049_arg_iSrc1+D'3'
062F  3000  	MOVLW HIGH(gbl_FCV_VALUE_STRING+D'0')
0630  00CB  	MOVWF FCI_TOSTRI_00049_arg_sDst+D'1'
0631  305C  	MOVLW LOW(gbl_FCV_VALUE_STRING+D'0')
0632  00CA  	MOVWF FCI_TOSTRI_00049_arg_sDst
0633  3014  	MOVLW 0x14
0634  00CC  	MOVWF FCI_TOSTRI_00049_arg_iDst_len
0635  2179  	CALL FCI_TOSTRI_00049
0636  3000  	MOVLW HIGH(gbl_FCV_UPISANA_SIFRA+D'0')
0637  00C7  	MOVWF FCI_SHEAD_00000_arg_sSrc1+D'1'
0638  3020  	MOVLW LOW(gbl_FCV_UPISANA_SIFRA+D'0')
0639  00C6  	MOVWF FCI_SHEAD_00000_arg_sSrc1
063A  3014  	MOVLW 0x14
063B  00C8  	MOVWF FCI_SHEAD_00000_arg_iSrc1_len
063C  3000  	MOVLW HIGH(gbl_FCV_VALUE_STRING+D'0')
063D  00CA  	MOVWF FCI_SHEAD_00000_arg_sSrc2+D'1'
063E  305C  	MOVLW LOW(gbl_FCV_VALUE_STRING+D'0')
063F  00C9  	MOVWF FCI_SHEAD_00000_arg_sSrc2
0640  3014  	MOVLW 0x14
0641  00CD  	MOVWF FCI_SHEAD_00000_arg_iSrc2_len
0642  3000  	MOVLW HIGH(gbl_FCV_UPISANA_SIFRA+D'0')
0643  00CF  	MOVWF FCI_SHEAD_00000_arg_sDst+D'1'
0644  3020  	MOVLW LOW(gbl_FCV_UPISANA_SIFRA+D'0')
0645  00CE  	MOVWF FCI_SHEAD_00000_arg_sDst
0646  3014  	MOVLW 0x14
0647  00D0  	MOVWF FCI_SHEAD_00000_arg_iDst_len
0648  22D5  	CALL FCI_SHEAD_00000
0649  3004  	MOVLW 0x04
064A  00C6  	MOVWF FCD_EEPROM_00052_arg_addr
064B  01C7  	CLRF FCD_EEPROM_00052_arg_addr+D'1'
064C  245E  	CALL FCD_EEPROM_00052
064D  0848  	MOVF CompTempVarRet2218, W
064E  00B2  	MOVWF gbl_FCV_VALUE
064F  0849  	MOVF CompTempVarRet2218+D'1', W
0650  00B3  	MOVWF gbl_FCV_VALUE+D'1'
0651  3014  	MOVLW 0x14
0652  00CA  	MOVWF delay_ms_00000_arg_del
0653  2010  	CALL delay_ms_00000
0654  0832  	MOVF gbl_FCV_VALUE, W
0655  00C6  	MOVWF FCI_TOSTRI_00049_arg_iSrc1
0656  0833  	MOVF gbl_FCV_VALUE+D'1', W
0657  00C7  	MOVWF FCI_TOSTRI_00049_arg_iSrc1+D'1'
0658  01C8  	CLRF FCI_TOSTRI_00049_arg_iSrc1+D'2'
0659  01C9  	CLRF FCI_TOSTRI_00049_arg_iSrc1+D'3'
065A  3000  	MOVLW HIGH(gbl_FCV_VALUE_STRING+D'0')
065B  00CB  	MOVWF FCI_TOSTRI_00049_arg_sDst+D'1'
065C  305C  	MOVLW LOW(gbl_FCV_VALUE_STRING+D'0')
065D  00CA  	MOVWF FCI_TOSTRI_00049_arg_sDst
065E  3014  	MOVLW 0x14
065F  00CC  	MOVWF FCI_TOSTRI_00049_arg_iDst_len
0660  2179  	CALL FCI_TOSTRI_00049
0661  3000  	MOVLW HIGH(gbl_FCV_UPISANA_SIFRA+D'0')
0662  00C7  	MOVWF FCI_SHEAD_00000_arg_sSrc1+D'1'
0663  3020  	MOVLW LOW(gbl_FCV_UPISANA_SIFRA+D'0')
0664  00C6  	MOVWF FCI_SHEAD_00000_arg_sSrc1
0665  3014  	MOVLW 0x14
0666  00C8  	MOVWF FCI_SHEAD_00000_arg_iSrc1_len
0667  3000  	MOVLW HIGH(gbl_FCV_VALUE_STRING+D'0')
0668  00CA  	MOVWF FCI_SHEAD_00000_arg_sSrc2+D'1'
0669  305C  	MOVLW LOW(gbl_FCV_VALUE_STRING+D'0')
066A  00C9  	MOVWF FCI_SHEAD_00000_arg_sSrc2
066B  3014  	MOVLW 0x14
066C  00CD  	MOVWF FCI_SHEAD_00000_arg_iSrc2_len
066D  3000  	MOVLW HIGH(gbl_FCV_UPISANA_SIFRA+D'0')
066E  00CF  	MOVWF FCI_SHEAD_00000_arg_sDst+D'1'
066F  3020  	MOVLW LOW(gbl_FCV_UPISANA_SIFRA+D'0')
0670  00CE  	MOVWF FCI_SHEAD_00000_arg_sDst
0671  3014  	MOVLW 0x14
0672  00D0  	MOVWF FCI_SHEAD_00000_arg_iDst_len
0673  22D5  	CALL FCI_SHEAD_00000
0674  0008  	RETURN
0675        ; } FCM_ucitavanje_sifre function end

	ORG 0x00000675
0675        FCM_setup_00000
0675        ; { FCM_setup ; function begin
0675  1683  	BSF STATUS, RP0
0676  1303  	BCF STATUS, RP1
0677  01C6  	CLRF FCD_EEPROM_00054_arg_addr
0678  01C7  	CLRF FCD_EEPROM_00054_arg_addr+D'1'
0679  3001  	MOVLW 0x01
067A  00C8  	MOVWF FCD_EEPROM_00054_arg_data
067B  01C9  	CLRF FCD_EEPROM_00054_arg_data+D'1'
067C  2456  	CALL FCD_EEPROM_00054
067D  3014  	MOVLW 0x14
067E  1303  	BCF STATUS, RP1
067F  00CA  	MOVWF delay_ms_00000_arg_del
0680  2010  	CALL delay_ms_00000
0681  3001  	MOVLW 0x01
0682  00C6  	MOVWF FCD_EEPROM_00054_arg_addr
0683  01C7  	CLRF FCD_EEPROM_00054_arg_addr+D'1'
0684  3002  	MOVLW 0x02
0685  00C8  	MOVWF FCD_EEPROM_00054_arg_data
0686  01C9  	CLRF FCD_EEPROM_00054_arg_data+D'1'
0687  2456  	CALL FCD_EEPROM_00054
0688  3014  	MOVLW 0x14
0689  1303  	BCF STATUS, RP1
068A  00CA  	MOVWF delay_ms_00000_arg_del
068B  2010  	CALL delay_ms_00000
068C  3002  	MOVLW 0x02
068D  00C6  	MOVWF FCD_EEPROM_00054_arg_addr
068E  01C7  	CLRF FCD_EEPROM_00054_arg_addr+D'1'
068F  3003  	MOVLW 0x03
0690  00C8  	MOVWF FCD_EEPROM_00054_arg_data
0691  01C9  	CLRF FCD_EEPROM_00054_arg_data+D'1'
0692  2456  	CALL FCD_EEPROM_00054
0693  3014  	MOVLW 0x14
0694  1303  	BCF STATUS, RP1
0695  00CA  	MOVWF delay_ms_00000_arg_del
0696  2010  	CALL delay_ms_00000
0697  3003  	MOVLW 0x03
0698  00C6  	MOVWF FCD_EEPROM_00054_arg_addr
0699  01C7  	CLRF FCD_EEPROM_00054_arg_addr+D'1'
069A  3004  	MOVLW 0x04
069B  00C8  	MOVWF FCD_EEPROM_00054_arg_data
069C  01C9  	CLRF FCD_EEPROM_00054_arg_data+D'1'
069D  2456  	CALL FCD_EEPROM_00054
069E  3014  	MOVLW 0x14
069F  1303  	BCF STATUS, RP1
06A0  00CA  	MOVWF delay_ms_00000_arg_del
06A1  2010  	CALL delay_ms_00000
06A2  3004  	MOVLW 0x04
06A3  00C6  	MOVWF FCD_EEPROM_00054_arg_addr
06A4  01C7  	CLRF FCD_EEPROM_00054_arg_addr+D'1'
06A5  3005  	MOVLW 0x05
06A6  00C8  	MOVWF FCD_EEPROM_00054_arg_data
06A7  01C9  	CLRF FCD_EEPROM_00054_arg_data+D'1'
06A8  2456  	CALL FCD_EEPROM_00054
06A9  3014  	MOVLW 0x14
06AA  1303  	BCF STATUS, RP1
06AB  00CA  	MOVWF delay_ms_00000_arg_del
06AC  2010  	CALL delay_ms_00000
06AD  0008  	RETURN
06AE        ; } FCM_setup function end

	ORG 0x000006AE
06AE        FCI_SCOPY_00000
06AE        ; { FCI_SCOPY ; function begin
06AE  01CD  	CLRF FCI_SCOPY_00000_1_len
06AF        label64
06AF  0849  	MOVF FCI_SCOPY_00000_arg_iSrc_len, W
06B0  024D  	SUBWF FCI_SCOPY_00000_1_len, W
06B1  1803  	BTFSC STATUS,C
06B2  2ED5  	GOTO	label65
06B3  084C  	MOVF FCI_SCOPY_00000_arg_iDst_len, W
06B4  024D  	SUBWF FCI_SCOPY_00000_1_len, W
06B5  1803  	BTFSC STATUS,C
06B6  2ED5  	GOTO	label65
06B7  1383  	BCF STATUS,IRP
06B8  1847  	BTFSC FCI_SCOPY_00000_arg_sSrc+D'1',0
06B9  1783  	BSF STATUS,IRP
06BA  0846  	MOVF FCI_SCOPY_00000_arg_sSrc, W
06BB  074D  	ADDWF FCI_SCOPY_00000_1_len, W
06BC  0084  	MOVWF FSR
06BD  0880  	MOVF INDF, F
06BE  1903  	BTFSC STATUS,Z
06BF  2ED5  	GOTO	label65
06C0  1383  	BCF STATUS,IRP
06C1  1847  	BTFSC FCI_SCOPY_00000_arg_sSrc+D'1',0
06C2  1783  	BSF STATUS,IRP
06C3  0846  	MOVF FCI_SCOPY_00000_arg_sSrc, W
06C4  0084  	MOVWF FSR
06C5  084D  	MOVF FCI_SCOPY_00000_1_len, W
06C6  00CE  	MOVWF CompTempVar2161
06C7  084E  	MOVF CompTempVar2161, W
06C8  0784  	ADDWF FSR, F
06C9  0800  	MOVF INDF, W
06CA  00CF  	MOVWF CompTempVar2162
06CB  1383  	BCF STATUS,IRP
06CC  184B  	BTFSC FCI_SCOPY_00000_arg_sDst+D'1',0
06CD  1783  	BSF STATUS,IRP
06CE  084A  	MOVF FCI_SCOPY_00000_arg_sDst, W
06CF  074D  	ADDWF FCI_SCOPY_00000_1_len, W
06D0  0084  	MOVWF FSR
06D1  084F  	MOVF CompTempVar2162, W
06D2  0080  	MOVWF INDF
06D3  0ACD  	INCF FCI_SCOPY_00000_1_len, F
06D4  2EAF  	GOTO	label64
06D5        label65
06D5  084C  	MOVF FCI_SCOPY_00000_arg_iDst_len, W
06D6  024D  	SUBWF FCI_SCOPY_00000_1_len, W
06D7  1803  	BTFSC STATUS,C
06D8  0008  	RETURN
06D9  1383  	BCF STATUS,IRP
06DA  184B  	BTFSC FCI_SCOPY_00000_arg_sDst+D'1',0
06DB  1783  	BSF STATUS,IRP
06DC  084A  	MOVF FCI_SCOPY_00000_arg_sDst, W
06DD  074D  	ADDWF FCI_SCOPY_00000_1_len, W
06DE  0084  	MOVWF FSR
06DF  3000  	MOVLW 0x00
06E0  0080  	MOVWF INDF
06E1  0008  	RETURN
06E2        ; } FCI_SCOPY function end

	ORG 0x000006E2
06E2        FCI_COMPAR_0004C
06E2        ; { FCI_COMPARE ; function begin
06E2  01CD  	CLRF FCI_COMPAR_0004C_1_iRetVal
06E3  01CE  	CLRF FCI_COMPAR_0004C_1_idx
06E4        label66
06E4  0848  	MOVF FCI_COMPAR_0004C_arg_iSrc1_len, W
06E5  024E  	SUBWF FCI_COMPAR_0004C_1_idx, W
06E6  1803  	BTFSC STATUS,C
06E7  2F37  	GOTO	label74
06E8  084B  	MOVF FCI_COMPAR_0004C_arg_iSrc2_len, W
06E9  024E  	SUBWF FCI_COMPAR_0004C_1_idx, W
06EA  1803  	BTFSC STATUS,C
06EB  2F28  	GOTO	label71
06EC  1383  	BCF STATUS,IRP
06ED  1847  	BTFSC FCI_COMPAR_0004C_arg_sSrc1+D'1',0
06EE  1783  	BSF STATUS,IRP
06EF  0846  	MOVF FCI_COMPAR_0004C_arg_sSrc1, W
06F0  0084  	MOVWF FSR
06F1  0800  	MOVF INDF, W
06F2  00CF  	MOVWF FCI_COMPAR_0004C_1_ch1
06F3  1383  	BCF STATUS,IRP
06F4  184A  	BTFSC FCI_COMPAR_0004C_arg_sSrc2+D'1',0
06F5  1783  	BSF STATUS,IRP
06F6  0849  	MOVF FCI_COMPAR_0004C_arg_sSrc2, W
06F7  0084  	MOVWF FSR
06F8  0800  	MOVF INDF, W
06F9  00D0  	MOVWF FCI_COMPAR_0004C_1_ch2
06FA  08CC  	MOVF FCI_COMPAR_0004C_arg_iNoCase, F
06FB  1903  	BTFSC STATUS,Z
06FC  2F13  	GOTO	label68
06FD  3061  	MOVLW 0x61
06FE  024F  	SUBWF FCI_COMPAR_0004C_1_ch1, W
06FF  1C03  	BTFSS STATUS,C
0700  2F08  	GOTO	label67
0701  084F  	MOVF FCI_COMPAR_0004C_1_ch1, W
0702  3C7A  	SUBLW 0x7A
0703  1C03  	BTFSS STATUS,C
0704  2F08  	GOTO	label67
0705  30DF  	MOVLW 0xDF
0706  054F  	ANDWF FCI_COMPAR_0004C_1_ch1, W
0707  00CF  	MOVWF FCI_COMPAR_0004C_1_ch1
0708        label67
0708  3061  	MOVLW 0x61
0709  0250  	SUBWF FCI_COMPAR_0004C_1_ch2, W
070A  1C03  	BTFSS STATUS,C
070B  2F13  	GOTO	label68
070C  0850  	MOVF FCI_COMPAR_0004C_1_ch2, W
070D  3C7A  	SUBLW 0x7A
070E  1C03  	BTFSS STATUS,C
070F  2F13  	GOTO	label68
0710  30DF  	MOVLW 0xDF
0711  0550  	ANDWF FCI_COMPAR_0004C_1_ch2, W
0712  00D0  	MOVWF FCI_COMPAR_0004C_1_ch2
0713        label68
0713  0850  	MOVF FCI_COMPAR_0004C_1_ch2, W
0714  024F  	SUBWF FCI_COMPAR_0004C_1_ch1, W
0715  1803  	BTFSC STATUS,C
0716  2F1A  	GOTO	label69
0717  30FF  	MOVLW 0xFF
0718  00D1  	MOVWF CompTempVarRet2027
0719  0008  	RETURN
071A        label69
071A  084F  	MOVF FCI_COMPAR_0004C_1_ch1, W
071B  0250  	SUBWF FCI_COMPAR_0004C_1_ch2, W
071C  1803  	BTFSC STATUS,C
071D  2F21  	GOTO	label70
071E  3001  	MOVLW 0x01
071F  00D1  	MOVWF CompTempVarRet2027
0720  0008  	RETURN
0721        label70
0721  0AC6  	INCF FCI_COMPAR_0004C_arg_sSrc1, F
0722  1903  	BTFSC STATUS,Z
0723  0AC7  	INCF FCI_COMPAR_0004C_arg_sSrc1+D'1', F
0724  0AC9  	INCF FCI_COMPAR_0004C_arg_sSrc2, F
0725  1903  	BTFSC STATUS,Z
0726  0ACA  	INCF FCI_COMPAR_0004C_arg_sSrc2+D'1', F
0727  2F35  	GOTO	label73
0728        label71
0728  1383  	BCF STATUS,IRP
0729  1847  	BTFSC FCI_COMPAR_0004C_arg_sSrc1+D'1',0
072A  1783  	BSF STATUS,IRP
072B  0846  	MOVF FCI_COMPAR_0004C_arg_sSrc1, W
072C  0084  	MOVWF FSR
072D  0880  	MOVF INDF, F
072E  1D03  	BTFSS STATUS,Z
072F  2F32  	GOTO	label72
0730  01D1  	CLRF CompTempVarRet2027
0731  0008  	RETURN
0732        label72
0732  3001  	MOVLW 0x01
0733  00D1  	MOVWF CompTempVarRet2027
0734  0008  	RETURN
0735        label73
0735  0ACE  	INCF FCI_COMPAR_0004C_1_idx, F
0736  2EE4  	GOTO	label66
0737        label74
0737  084B  	MOVF FCI_COMPAR_0004C_arg_iSrc2_len, W
0738  0648  	XORWF FCI_COMPAR_0004C_arg_iSrc1_len, W
0739  1D03  	BTFSS STATUS,Z
073A  2F3D  	GOTO	label75
073B  01D1  	CLRF CompTempVarRet2027
073C  0008  	RETURN
073D        label75
073D  1383  	BCF STATUS,IRP
073E  184A  	BTFSC FCI_COMPAR_0004C_arg_sSrc2+D'1',0
073F  1783  	BSF STATUS,IRP
0740  0849  	MOVF FCI_COMPAR_0004C_arg_sSrc2, W
0741  0084  	MOVWF FSR
0742  0880  	MOVF INDF, F
0743  1D03  	BTFSS STATUS,Z
0744  2F47  	GOTO	label76
0745  01D1  	CLRF CompTempVarRet2027
0746  0008  	RETURN
0747        label76
0747  30FF  	MOVLW 0xFF
0748  00D1  	MOVWF CompTempVarRet2027
0749  0008  	RETURN
074A        ; } FCI_COMPARE function end

	ORG 0x0000074A
074A        FCD_LCDDis_0005C
074A        ; { FCD_LCDDisplay0_PrintString ; function begin
074A  01D9  	CLRF FCD_LCDDis_0005C_1_idx
074B  01D9  	CLRF FCD_LCDDis_0005C_1_idx
074C        label77
074C  0858  	MOVF FCD_LCDDis_0005C_arg_MSZ_String, W
074D  0259  	SUBWF FCD_LCDDis_0005C_1_idx, W
074E  1803  	BTFSC STATUS,C
074F  0008  	RETURN
0750  1383  	BCF STATUS,IRP
0751  1847  	BTFSC FCD_LCDDis_0005C_arg_String+D'1',0
0752  1783  	BSF STATUS,IRP
0753  0846  	MOVF FCD_LCDDis_0005C_arg_String, W
0754  0759  	ADDWF FCD_LCDDis_0005C_1_idx, W
0755  0084  	MOVWF FSR
0756  0880  	MOVF INDF, F
0757  1903  	BTFSC STATUS,Z
0758  0008  	RETURN
0759  1383  	BCF STATUS,IRP
075A  1847  	BTFSC FCD_LCDDis_0005C_arg_String+D'1',0
075B  1783  	BSF STATUS,IRP
075C  0846  	MOVF FCD_LCDDis_0005C_arg_String, W
075D  0759  	ADDWF FCD_LCDDis_0005C_1_idx, W
075E  0084  	MOVWF FSR
075F  0800  	MOVF INDF, W
0760  00DA  	MOVWF FCD_LCDDis_00055_arg_in
0761  3010  	MOVLW 0x10
0762  00DB  	MOVWF FCD_LCDDis_00055_arg_mask
0763  23EB  	CALL FCD_LCDDis_00055
0764  0AD9  	INCF FCD_LCDDis_0005C_1_idx, F
0765  2F4C  	GOTO	label77
0766        ; } FCD_LCDDisplay0_PrintString function end

	ORG 0x00000766
0766        FCD_LCDDis_0005A
0766        ; { FCD_LCDDisplay0_Cursor ; function begin
0766  08C7  	MOVF FCD_LCDDis_0005A_arg_y, F
0767  1D03  	BTFSS STATUS,Z
0768  2F6C  	GOTO	label78
0769  3080  	MOVLW 0x80
076A  00C7  	MOVWF FCD_LCDDis_0005A_arg_y
076B  2F6E  	GOTO	label79
076C        label78
076C  30C0  	MOVLW 0xC0
076D  00C7  	MOVWF FCD_LCDDis_0005A_arg_y
076E        label79
076E  0846  	MOVF FCD_LCDDis_0005A_arg_x, W
076F  0747  	ADDWF FCD_LCDDis_0005A_arg_y, W
0770  00DA  	MOVWF FCD_LCDDis_00055_arg_in
0771  01DB  	CLRF FCD_LCDDis_00055_arg_mask
0772  23EB  	CALL FCD_LCDDis_00055
0773  3002  	MOVLW 0x02
0774  00C8  	MOVWF Wdt_Delay__0003E_arg_delay
0775  216E  	CALL Wdt_Delay__0003E
0776  0008  	RETURN
0777        ; } FCD_LCDDisplay0_Cursor function end

	ORG 0x00000777
0777        FCD_LCDDis_00057
0777        ; { FCD_LCDDisplay0_Clear ; function begin
0777  3001  	MOVLW 0x01
0778  1683  	BSF STATUS, RP0
0779  1303  	BCF STATUS, RP1
077A  00DA  	MOVWF FCD_LCDDis_00055_arg_in
077B  01DB  	CLRF FCD_LCDDis_00055_arg_mask
077C  23EB  	CALL FCD_LCDDis_00055
077D  3002  	MOVLW 0x02
077E  00C8  	MOVWF Wdt_Delay__0003E_arg_delay
077F  216E  	CALL Wdt_Delay__0003E
0780  3002  	MOVLW 0x02
0781  00DA  	MOVWF FCD_LCDDis_00055_arg_in
0782  01DB  	CLRF FCD_LCDDis_00055_arg_mask
0783  23EB  	CALL FCD_LCDDis_00055
0784  3002  	MOVLW 0x02
0785  00C8  	MOVWF Wdt_Delay__0003E_arg_delay
0786  216E  	CALL Wdt_Delay__0003E
0787  0008  	RETURN
0788        ; } FCD_LCDDisplay0_Clear function end

	ORG 0x00000788
0788        FCD_LCDDis_00056
0788        ; { FCD_LCDDisplay0_Start ; function begin
0788  1683  	BSF STATUS, RP0
0789  1303  	BCF STATUS, RP1
078A  1206  	BCF gbl_trisb,4
078B  1283  	BCF STATUS, RP0
078C  1206  	BCF gbl_portb,4
078D  1683  	BSF STATUS, RP0
078E  1286  	BCF gbl_trisb,5
078F  1283  	BCF STATUS, RP0
0790  1286  	BCF gbl_portb,5
0791  1683  	BSF STATUS, RP0
0792  1306  	BCF gbl_trisb,6
0793  1283  	BCF STATUS, RP0
0794  1306  	BCF gbl_portb,6
0795  1683  	BSF STATUS, RP0
0796  1386  	BCF gbl_trisb,7
0797  1283  	BCF STATUS, RP0
0798  1386  	BCF gbl_portb,7
0799  1683  	BSF STATUS, RP0
079A  1106  	BCF gbl_trisb,2
079B  1283  	BCF STATUS, RP0
079C  1106  	BCF gbl_portb,2
079D  1683  	BSF STATUS, RP0
079E  1186  	BCF gbl_trisb,3
079F  1283  	BCF STATUS, RP0
07A0  1186  	BCF gbl_portb,3
07A1  300C  	MOVLW 0x0C
07A2  1683  	BSF STATUS, RP0
07A3  00C8  	MOVWF Wdt_Delay__0003E_arg_delay
07A4  216E  	CALL Wdt_Delay__0003E
07A5  3033  	MOVLW 0x33
07A6  00DA  	MOVWF FCD_LCDDis_00055_arg_in
07A7  01DB  	CLRF FCD_LCDDis_00055_arg_mask
07A8  23EB  	CALL FCD_LCDDis_00055
07A9  3002  	MOVLW 0x02
07AA  00C8  	MOVWF Wdt_Delay__0003E_arg_delay
07AB  216E  	CALL Wdt_Delay__0003E
07AC  3033  	MOVLW 0x33
07AD  00DA  	MOVWF FCD_LCDDis_00055_arg_in
07AE  01DB  	CLRF FCD_LCDDis_00055_arg_mask
07AF  23EB  	CALL FCD_LCDDis_00055
07B0  3002  	MOVLW 0x02
07B1  00C8  	MOVWF Wdt_Delay__0003E_arg_delay
07B2  216E  	CALL Wdt_Delay__0003E
07B3  3032  	MOVLW 0x32
07B4  00DA  	MOVWF FCD_LCDDis_00055_arg_in
07B5  01DB  	CLRF FCD_LCDDis_00055_arg_mask
07B6  23EB  	CALL FCD_LCDDis_00055
07B7  3002  	MOVLW 0x02
07B8  00C8  	MOVWF Wdt_Delay__0003E_arg_delay
07B9  216E  	CALL Wdt_Delay__0003E
07BA  302C  	MOVLW 0x2C
07BB  00DA  	MOVWF FCD_LCDDis_00055_arg_in
07BC  01DB  	CLRF FCD_LCDDis_00055_arg_mask
07BD  23EB  	CALL FCD_LCDDis_00055
07BE  3002  	MOVLW 0x02
07BF  00C8  	MOVWF Wdt_Delay__0003E_arg_delay
07C0  216E  	CALL Wdt_Delay__0003E
07C1  3006  	MOVLW 0x06
07C2  00DA  	MOVWF FCD_LCDDis_00055_arg_in
07C3  01DB  	CLRF FCD_LCDDis_00055_arg_mask
07C4  23EB  	CALL FCD_LCDDis_00055
07C5  3002  	MOVLW 0x02
07C6  00C8  	MOVWF Wdt_Delay__0003E_arg_delay
07C7  216E  	CALL Wdt_Delay__0003E
07C8  300C  	MOVLW 0x0C
07C9  00DA  	MOVWF FCD_LCDDis_00055_arg_in
07CA  01DB  	CLRF FCD_LCDDis_00055_arg_mask
07CB  23EB  	CALL FCD_LCDDis_00055
07CC  3002  	MOVLW 0x02
07CD  00C8  	MOVWF Wdt_Delay__0003E_arg_delay
07CE  216E  	CALL Wdt_Delay__0003E
07CF  3001  	MOVLW 0x01
07D0  00DA  	MOVWF FCD_LCDDis_00055_arg_in
07D1  01DB  	CLRF FCD_LCDDis_00055_arg_mask
07D2  23EB  	CALL FCD_LCDDis_00055
07D3  3002  	MOVLW 0x02
07D4  00C8  	MOVWF Wdt_Delay__0003E_arg_delay
07D5  216E  	CALL Wdt_Delay__0003E
07D6  3002  	MOVLW 0x02
07D7  00DA  	MOVWF FCD_LCDDis_00055_arg_in
07D8  01DB  	CLRF FCD_LCDDis_00055_arg_mask
07D9  23EB  	CALL FCD_LCDDis_00055
07DA  3002  	MOVLW 0x02
07DB  00C8  	MOVWF Wdt_Delay__0003E_arg_delay
07DC  216E  	CALL Wdt_Delay__0003E
07DD  0008  	RETURN
07DE        ; } FCD_LCDDisplay0_Start function end

	ORG 0x000007DE
07DE        FCD_KeyPad_00061
07DE        ; { FCD_KeyPad0_GetKeypadNumber ; function begin
07DE  1683  	BSF STATUS, RP0
07DF  1303  	BCF STATUS, RP1
07E0  01C6  	CLRF FCD_KeyPad_00061_1_iCol
07E1        label80
07E1  3003  	MOVLW 0x03
07E2  0246  	SUBWF FCD_KeyPad_00061_1_iCol, W
07E3  158A  	BSF PCLATH,3
07E4  1803  	BTFSC STATUS,C
07E5  2890  	GOTO	label96
07E6  083E  	MOVF gbl_Keypad_2_MX_KEYPAD_COL, W
07E7  00C9  	MOVWF __rom_get_00000_arg_objNumb
07E8  0846  	MOVF FCD_KeyPad_00061_1_iCol, W
07E9  00CA  	MOVWF __rom_get_00000_arg_idx
07EA  118A  	BCF PCLATH,3
07EB  2040  	CALL __rom_get_00000
07EC  00CB  	MOVWF CompTempVar2270
07ED  3001  	MOVLW 0x01
07EE  00CC  	MOVWF CompTempVar2271
07EF  01CD  	CLRF CompTempVar2272
07F0  084B  	MOVF CompTempVar2270, W
07F1        label81
07F1  39FF  	ANDLW 0xFF
07F2  118A  	BCF PCLATH,3
07F3  120A  	BCF PCLATH,4
07F4  1903  	BTFSC STATUS,Z
07F5  2FFB  	GOTO	label82
07F6  1003  	BCF STATUS,C
07F7  0DCC  	RLF CompTempVar2271, F
07F8  0DCD  	RLF CompTempVar2272, F
07F9  3EFF  	ADDLW 0xFF
07FA  2FF1  	GOTO	label81
07FB        label82
07FB  094C  	COMF CompTempVar2271, W
07FC  0588  	ANDWF gbl_trisd, F
07FD  083E  	MOVF gbl_Keypad_2_MX_KEYPAD_COL, W
07FE  00C9  	MOVWF __rom_get_00000_arg_objNumb
07FF  0846  	MOVF FCD_KeyPad_00061_1_iCol, W
0800  00CA  	MOVWF __rom_get_00000_arg_idx
0801  2040  	CALL __rom_get_00000
0802  00CB  	MOVWF CompTempVar2274
0803  3001  	MOVLW 0x01
0804  00CC  	MOVWF CompTempVar2275
0805  084B  	MOVF CompTempVar2274, W
0806        label83
0806  39FF  	ANDLW 0xFF
0807  158A  	BSF PCLATH,3
0808  120A  	BCF PCLATH,4
0809  1903  	BTFSC STATUS,Z
080A  280F  	GOTO	label84
080B  1003  	BCF STATUS,C
080C  0DCC  	RLF CompTempVar2275, F
080D  3EFF  	ADDLW 0xFF
080E  2806  	GOTO	label83
080F        label84
080F  084C  	MOVF CompTempVar2275, W
0810  1283  	BCF STATUS, RP0
0811  0488  	IORWF gbl_portd, F
0812  300A  	MOVLW 0x0A
0813  1683  	BSF STATUS, RP0
0814  00C9  	MOVWF delay_us_00000_arg_del
0815  118A  	BCF PCLATH,3
0816  2036  	CALL delay_us_00000
0817  01C7  	CLRF FCD_KeyPad_00061_1_iRow
0818        label85
0818  3004  	MOVLW 0x04
0819  0247  	SUBWF FCD_KeyPad_00061_1_iRow, W
081A  158A  	BSF PCLATH,3
081B  1803  	BTFSC STATUS,C
081C  2878  	GOTO	label93
081D  083F  	MOVF gbl_Keypad_2_MX_KEYPAD_ROW, W
081E  00C9  	MOVWF __rom_get_00000_arg_objNumb
081F  0847  	MOVF FCD_KeyPad_00061_1_iRow, W
0820  00CA  	MOVWF __rom_get_00000_arg_idx
0821  118A  	BCF PCLATH,3
0822  2040  	CALL __rom_get_00000
0823  00CE  	MOVWF CompTempVar2280
0824  3001  	MOVLW 0x01
0825  00CF  	MOVWF CompTempVar2281
0826  084E  	MOVF CompTempVar2280, W
0827        label86
0827  39FF  	ANDLW 0xFF
0828  158A  	BSF PCLATH,3
0829  120A  	BCF PCLATH,4
082A  1903  	BTFSC STATUS,Z
082B  2830  	GOTO	label87
082C  1003  	BCF STATUS,C
082D  0DCF  	RLF CompTempVar2281, F
082E  3EFF  	ADDLW 0xFF
082F  2827  	GOTO	label86
0830        label87
0830  084F  	MOVF CompTempVar2281, W
0831  0488  	IORWF gbl_trisd, F
0832  083F  	MOVF gbl_Keypad_2_MX_KEYPAD_ROW, W
0833  00C9  	MOVWF __rom_get_00000_arg_objNumb
0834  0847  	MOVF FCD_KeyPad_00061_1_iRow, W
0835  00CA  	MOVWF __rom_get_00000_arg_idx
0836  118A  	BCF PCLATH,3
0837  2040  	CALL __rom_get_00000
0838  00CB  	MOVWF CompTempVar2277
0839  3001  	MOVLW 0x01
083A  00CC  	MOVWF CompTempVar2278
083B  01CD  	CLRF CompTempVar2279
083C  084B  	MOVF CompTempVar2277, W
083D        label88
083D  39FF  	ANDLW 0xFF
083E  158A  	BSF PCLATH,3
083F  120A  	BCF PCLATH,4
0840  1903  	BTFSC STATUS,Z
0841  2847  	GOTO	label89
0842  1003  	BCF STATUS,C
0843  0DCC  	RLF CompTempVar2278, F
0844  0DCD  	RLF CompTempVar2279, F
0845  3EFF  	ADDLW 0xFF
0846  283D  	GOTO	label88
0847        label89
0847  084C  	MOVF CompTempVar2278, W
0848  1283  	BCF STATUS, RP0
0849  0508  	ANDWF gbl_portd, W
084A  1903  	BTFSC STATUS,Z
084B  2875  	GOTO	label92
084C  1683  	BSF STATUS, RP0
084D  0846  	MOVF FCD_KeyPad_00061_1_iCol, W
084E  00C8  	MOVWF FCD_KeyPad_00061_1_idx
084F  01CE  	CLRF CompTempVar2287
0850  0DC8  	RLF FCD_KeyPad_00061_1_idx, F
0851  0DCE  	RLF CompTempVar2287, F
0852  0DC8  	RLF FCD_KeyPad_00061_1_idx, F
0853  0DCE  	RLF CompTempVar2287, F
0854  30FC  	MOVLW 0xFC
0855  05C8  	ANDWF FCD_KeyPad_00061_1_idx, F
0856  0847  	MOVF FCD_KeyPad_00061_1_iRow, W
0857  07C8  	ADDWF FCD_KeyPad_00061_1_idx, F
0858  083E  	MOVF gbl_Keypad_2_MX_KEYPAD_COL, W
0859  00C9  	MOVWF __rom_get_00000_arg_objNumb
085A  0846  	MOVF FCD_KeyPad_00061_1_iCol, W
085B  00CA  	MOVWF __rom_get_00000_arg_idx
085C  118A  	BCF PCLATH,3
085D  2040  	CALL __rom_get_00000
085E  00CE  	MOVWF CompTempVar2288
085F  3001  	MOVLW 0x01
0860  00CF  	MOVWF CompTempVar2289
0861  084E  	MOVF CompTempVar2288, W
0862        label90
0862  39FF  	ANDLW 0xFF
0863  158A  	BSF PCLATH,3
0864  120A  	BCF PCLATH,4
0865  1903  	BTFSC STATUS,Z
0866  286B  	GOTO	label91
0867  1003  	BCF STATUS,C
0868  0DCF  	RLF CompTempVar2289, F
0869  3EFF  	ADDLW 0xFF
086A  2862  	GOTO	label90
086B        label91
086B  084F  	MOVF CompTempVar2289, W
086C  0488  	IORWF gbl_trisd, F
086D  0840  	MOVF gbl_Keypad_2_mtxKeysAsNumbers, W
086E  00C9  	MOVWF __rom_get_00000_arg_objNumb
086F  0848  	MOVF FCD_KeyPad_00061_1_idx, W
0870  00CA  	MOVWF __rom_get_00000_arg_idx
0871  118A  	BCF PCLATH,3
0872  2040  	CALL __rom_get_00000
0873  00CE  	MOVWF CompTempVarRet2269
0874  0008  	RETURN
0875        label92
0875  1683  	BSF STATUS, RP0
0876  0AC7  	INCF FCD_KeyPad_00061_1_iRow, F
0877  2818  	GOTO	label85
0878        label93
0878  083E  	MOVF gbl_Keypad_2_MX_KEYPAD_COL, W
0879  00C9  	MOVWF __rom_get_00000_arg_objNumb
087A  0846  	MOVF FCD_KeyPad_00061_1_iCol, W
087B  00CA  	MOVWF __rom_get_00000_arg_idx
087C  118A  	BCF PCLATH,3
087D  2040  	CALL __rom_get_00000
087E  00CB  	MOVWF CompTempVar2291
087F  3001  	MOVLW 0x01
0880  00CC  	MOVWF CompTempVar2292
0881  084B  	MOVF CompTempVar2291, W
0882        label94
0882  39FF  	ANDLW 0xFF
0883  158A  	BSF PCLATH,3
0884  120A  	BCF PCLATH,4
0885  1903  	BTFSC STATUS,Z
0886  288B  	GOTO	label95
0887  1003  	BCF STATUS,C
0888  0DCC  	RLF CompTempVar2292, F
0889  3EFF  	ADDLW 0xFF
088A  2882  	GOTO	label94
088B        label95
088B  084C  	MOVF CompTempVar2292, W
088C  0488  	IORWF gbl_trisd, F
088D  0AC6  	INCF FCD_KeyPad_00061_1_iCol, F
088E  118A  	BCF PCLATH,3
088F  2FE1  	GOTO	label80
0890        label96
0890  30FF  	MOVLW 0xFF
0891  00CE  	MOVWF CompTempVarRet2269
0892  0008  	RETURN
0893        ; } FCD_KeyPad0_GetKeypadNumber function end

	ORG 0x00000893
0893        main
0893        ; { main ; function begin
0893  3007  	MOVLW 0x07
0894  1683  	BSF STATUS, RP0
0895  1303  	BCF STATUS, RP1
0896  009F  	MOVWF gbl_adcon1
0897  30C0  	MOVLW 0xC0
0898  0081  	MOVWF gbl_option_reg
0899  01B2  	CLRF gbl_FCV_VALUE
089A  01B3  	CLRF gbl_FCV_VALUE+D'1'
089B  10BD  	BCF gbl_FCV_OTKLJUCAN,1
089C  103D  	BCF gbl_FCV_NOVI,0
089D  01C4  	CLRF CompTempVar2320
089E  3000  	MOVLW HIGH(CompTempVar2320+D'0')
089F  00C7  	MOVWF FCI_SCOPY_00000_arg_sSrc+D'1'
08A0  30C4  	MOVLW LOW(CompTempVar2320+D'0')
08A1  00C6  	MOVWF FCI_SCOPY_00000_arg_sSrc
08A2  01C9  	CLRF FCI_SCOPY_00000_arg_iSrc_len
08A3  3000  	MOVLW HIGH(gbl_FCV_ZVZ+D'0')
08A4  00CB  	MOVWF FCI_SCOPY_00000_arg_sDst+D'1'
08A5  3048  	MOVLW LOW(gbl_FCV_ZVZ+D'0')
08A6  00CA  	MOVWF FCI_SCOPY_00000_arg_sDst
08A7  3014  	MOVLW 0x14
08A8  00CC  	MOVWF FCI_SCOPY_00000_arg_iDst_len
08A9  118A  	BCF PCLATH,3
08AA  26AE  	CALL FCI_SCOPY_00000
08AB  01C4  	CLRF CompTempVar2323
08AC  3000  	MOVLW HIGH(CompTempVar2323+D'0')
08AD  00C7  	MOVWF FCI_SCOPY_00000_arg_sSrc+D'1'
08AE  30C4  	MOVLW LOW(CompTempVar2323+D'0')
08AF  00C6  	MOVWF FCI_SCOPY_00000_arg_sSrc
08B0  01C9  	CLRF FCI_SCOPY_00000_arg_iSrc_len
08B1  3000  	MOVLW HIGH(gbl_FCV_GLAVNA_SIFRA_STRING+D'0')
08B2  00CB  	MOVWF FCI_SCOPY_00000_arg_sDst+D'1'
08B3  3034  	MOVLW LOW(gbl_FCV_GLAVNA_SIFRA_STRING+D'0')
08B4  00CA  	MOVWF FCI_SCOPY_00000_arg_sDst
08B5  3014  	MOVLW 0x14
08B6  00CC  	MOVWF FCI_SCOPY_00000_arg_iDst_len
08B7  26AE  	CALL FCI_SCOPY_00000
08B8  01C4  	CLRF CompTempVar2326
08B9  3000  	MOVLW HIGH(CompTempVar2326+D'0')
08BA  00C7  	MOVWF FCI_SCOPY_00000_arg_sSrc+D'1'
08BB  30C4  	MOVLW LOW(CompTempVar2326+D'0')
08BC  00C6  	MOVWF FCI_SCOPY_00000_arg_sSrc
08BD  01C9  	CLRF FCI_SCOPY_00000_arg_iSrc_len
08BE  3000  	MOVLW HIGH(gbl_FCV_UPISANA_SIFRA+D'0')
08BF  00CB  	MOVWF FCI_SCOPY_00000_arg_sDst+D'1'
08C0  3020  	MOVLW LOW(gbl_FCV_UPISANA_SIFRA+D'0')
08C1  00CA  	MOVWF FCI_SCOPY_00000_arg_sDst
08C2  3014  	MOVLW 0x14
08C3  00CC  	MOVWF FCI_SCOPY_00000_arg_iDst_len
08C4  26AE  	CALL FCI_SCOPY_00000
08C5  2675  	CALL FCM_setup_00000
08C6  259C  	CALL FCM_ucitav_00051
08C7  2788  	CALL FCD_LCDDis_00056
08C8        label97
08C8  158A  	BSF PCLATH,3
08C9  1CBD  	BTFSS gbl_FCV_OTKLJUCAN,1
08CA  28FD  	GOTO	label98
08CB  30FD  	MOVLW 0xFD
08CC  0507  	ANDWF gbl_trisc, W
08CD  0087  	MOVWF gbl_trisc
08CE  30FD  	MOVLW 0xFD
08CF  1283  	BCF STATUS, RP0
08D0  0507  	ANDWF gbl_portc, W
08D1  0087  	MOVWF gbl_portc
08D2  1683  	BSF STATUS, RP0
08D3  01C6  	CLRF FCD_LCDDis_0005A_arg_x
08D4  01C7  	CLRF FCD_LCDDis_0005A_arg_y
08D5  118A  	BCF PCLATH,3
08D6  2766  	CALL FCD_LCDDis_0005A
08D7  3020  	MOVLW 0x20
08D8  00CB  	MOVWF CompTempVar2329+D'3'
08D9  00D5  	MOVWF CompTempVar2329+D'13'
08DA  00D6  	MOVWF CompTempVar2329+D'14'
08DB  3053  	MOVLW 0x53
08DC  00C8  	MOVWF CompTempVar2329
08DD  3061  	MOVLW 0x61
08DE  00D3  	MOVWF CompTempVar2329+D'11'
08DF  3063  	MOVLW 0x63
08E0  00D2  	MOVWF CompTempVar2329+D'10'
08E1  3065  	MOVLW 0x65
08E2  00C9  	MOVWF CompTempVar2329+D'1'
08E3  3066  	MOVLW 0x66
08E4  00CA  	MOVWF CompTempVar2329+D'2'
08E5  306A  	MOVLW 0x6A
08E6  00D0  	MOVWF CompTempVar2329+D'8'
08E7  306B  	MOVLW 0x6B
08E8  00CE  	MOVWF CompTempVar2329+D'6'
08E9  306C  	MOVLW 0x6C
08EA  00CF  	MOVWF CompTempVar2329+D'7'
08EB  306E  	MOVLW 0x6E
08EC  00D4  	MOVWF CompTempVar2329+D'12'
08ED  306F  	MOVLW 0x6F
08EE  00CC  	MOVWF CompTempVar2329+D'4'
08EF  3074  	MOVLW 0x74
08F0  00CD  	MOVWF CompTempVar2329+D'5'
08F1  3075  	MOVLW 0x75
08F2  00D1  	MOVWF CompTempVar2329+D'9'
08F3  01D7  	CLRF CompTempVar2329+D'15'
08F4  3000  	MOVLW HIGH(CompTempVar2329+D'0')
08F5  00C7  	MOVWF FCD_LCDDis_0005C_arg_String+D'1'
08F6  30C8  	MOVLW LOW(CompTempVar2329+D'0')
08F7  00C6  	MOVWF FCD_LCDDis_0005C_arg_String
08F8  300F  	MOVLW 0x0F
08F9  00D8  	MOVWF FCD_LCDDis_0005C_arg_MSZ_String
08FA  274A  	CALL FCD_LCDDis_0005C
08FB  158A  	BSF PCLATH,3
08FC  2947  	GOTO	label100
08FD        label98
08FD  183D  	BTFSC gbl_FCV_NOVI,0
08FE  292A  	GOTO	label99
08FF  01C6  	CLRF FCD_LCDDis_0005A_arg_x
0900  01C7  	CLRF FCD_LCDDis_0005A_arg_y
0901  118A  	BCF PCLATH,3
0902  2766  	CALL FCD_LCDDis_0005A
0903  3050  	MOVLW 0x50
0904  00C8  	MOVWF CompTempVar2331
0905  3061  	MOVLW 0x61
0906  00C9  	MOVWF CompTempVar2331+D'1'
0907  3073  	MOVLW 0x73
0908  00CA  	MOVWF CompTempVar2331+D'2'
0909  00CB  	MOVWF CompTempVar2331+D'3'
090A  3077  	MOVLW 0x77
090B  00CC  	MOVWF CompTempVar2331+D'4'
090C  306F  	MOVLW 0x6F
090D  00CD  	MOVWF CompTempVar2331+D'5'
090E  3072  	MOVLW 0x72
090F  00CE  	MOVWF CompTempVar2331+D'6'
0910  3064  	MOVLW 0x64
0911  00CF  	MOVWF CompTempVar2331+D'7'
0912  303A  	MOVLW 0x3A
0913  00D0  	MOVWF CompTempVar2331+D'8'
0914  01D1  	CLRF CompTempVar2331+D'9'
0915  3000  	MOVLW HIGH(CompTempVar2331+D'0')
0916  00C7  	MOVWF FCD_LCDDis_0005C_arg_String+D'1'
0917  30C8  	MOVLW LOW(CompTempVar2331+D'0')
0918  00C6  	MOVWF FCD_LCDDis_0005C_arg_String
0919  3009  	MOVLW 0x09
091A  00D8  	MOVWF FCD_LCDDis_0005C_arg_MSZ_String
091B  274A  	CALL FCD_LCDDis_0005C
091C  30FC  	MOVLW 0xFC
091D  0507  	ANDWF gbl_trisc, W
091E  0087  	MOVWF gbl_trisc
091F  30FC  	MOVLW 0xFC
0920  1283  	BCF STATUS, RP0
0921  0507  	ANDWF gbl_portc, W
0922  1683  	BSF STATUS, RP0
0923  00C2  	MOVWF CompTempVar2333
0924  3002  	MOVLW 0x02
0925  0442  	IORWF CompTempVar2333, W
0926  1283  	BCF STATUS, RP0
0927  0087  	MOVWF gbl_portc
0928  158A  	BSF PCLATH,3
0929  2947  	GOTO	label100
092A        label99
092A  01C6  	CLRF FCD_LCDDis_0005A_arg_x
092B  01C7  	CLRF FCD_LCDDis_0005A_arg_y
092C  118A  	BCF PCLATH,3
092D  2766  	CALL FCD_LCDDis_0005A
092E  304E  	MOVLW 0x4E
092F  00C8  	MOVWF CompTempVar2334
0930  3065  	MOVLW 0x65
0931  00C9  	MOVWF CompTempVar2334+D'1'
0932  3077  	MOVLW 0x77
0933  00CA  	MOVWF CompTempVar2334+D'2'
0934  3020  	MOVLW 0x20
0935  00CB  	MOVWF CompTempVar2334+D'3'
0936  3070  	MOVLW 0x70
0937  00CC  	MOVWF CompTempVar2334+D'4'
0938  3061  	MOVLW 0x61
0939  00CD  	MOVWF CompTempVar2334+D'5'
093A  3073  	MOVLW 0x73
093B  00CE  	MOVWF CompTempVar2334+D'6'
093C  00CF  	MOVWF CompTempVar2334+D'7'
093D  303A  	MOVLW 0x3A
093E  00D0  	MOVWF CompTempVar2334+D'8'
093F  01D1  	CLRF CompTempVar2334+D'9'
0940  3000  	MOVLW HIGH(CompTempVar2334+D'0')
0941  00C7  	MOVWF FCD_LCDDis_0005C_arg_String+D'1'
0942  30C8  	MOVLW LOW(CompTempVar2334+D'0')
0943  00C6  	MOVWF FCD_LCDDis_0005C_arg_String
0944  3009  	MOVLW 0x09
0945  00D8  	MOVWF FCD_LCDDis_0005C_arg_MSZ_String
0946  274A  	CALL FCD_LCDDis_0005C
0947        label100
0947  118A  	BCF PCLATH,3
0948  27DE  	CALL FCD_KeyPad_00061
0949  084E  	MOVF CompTempVarRet2269, W
094A  00B2  	MOVWF gbl_FCV_VALUE
094B  01B3  	CLRF gbl_FCV_VALUE+D'1'
094C  30FF  	MOVLW 0xFF
094D  0632  	XORWF gbl_FCV_VALUE, W
094E  1903  	BTFSC STATUS,Z
094F  0833  	MOVF gbl_FCV_VALUE+D'1', W
0950  158A  	BSF PCLATH,3
0951  120A  	BCF PCLATH,4
0952  1903  	BTFSC STATUS,Z
0953  28C8  	GOTO	label97
0954  01C3  	CLRF CompTempVar2337
0955  300A  	MOVLW 0x0A
0956  0232  	SUBWF gbl_FCV_VALUE, W
0957  1903  	BTFSC STATUS,Z
0958  0833  	MOVF gbl_FCV_VALUE+D'1', W
0959  1903  	BTFSC STATUS,Z
095A  0AC3  	INCF CompTempVar2337, F
095B  01C2  	CLRF CompTempVar2336
095C  18BD  	BTFSC gbl_FCV_OTKLJUCAN,1
095D  0AC2  	INCF CompTempVar2336, F
095E  0842  	MOVF CompTempVar2336, W
095F  0543  	ANDWF CompTempVar2337, W
0960  1903  	BTFSC STATUS,Z
0961  2973  	GOTO	label101
0962  143D  	BSF gbl_FCV_NOVI,0
0963  10BD  	BCF gbl_FCV_OTKLJUCAN,1
0964  01C8  	CLRF CompTempVar2340
0965  3000  	MOVLW HIGH(CompTempVar2340+D'0')
0966  00C7  	MOVWF FCI_SCOPY_00000_arg_sSrc+D'1'
0967  30C8  	MOVLW LOW(CompTempVar2340+D'0')
0968  00C6  	MOVWF FCI_SCOPY_00000_arg_sSrc
0969  01C9  	CLRF FCI_SCOPY_00000_arg_iSrc_len
096A  3000  	MOVLW HIGH(gbl_FCV_UPISANA_SIFRA+D'0')
096B  00CB  	MOVWF FCI_SCOPY_00000_arg_sDst+D'1'
096C  3020  	MOVLW LOW(gbl_FCV_UPISANA_SIFRA+D'0')
096D  00CA  	MOVWF FCI_SCOPY_00000_arg_sDst
096E  3014  	MOVLW 0x14
096F  00CC  	MOVWF FCI_SCOPY_00000_arg_iDst_len
0970  118A  	BCF PCLATH,3
0971  26AE  	CALL FCI_SCOPY_00000
0972  2777  	CALL FCD_LCDDis_00057
0973        label101
0973  300B  	MOVLW 0x0B
0974  0632  	XORWF gbl_FCV_VALUE, W
0975  1903  	BTFSC STATUS,Z
0976  0833  	MOVF gbl_FCV_VALUE+D'1', W
0977  158A  	BSF PCLATH,3
0978  1D03  	BTFSS STATUS,Z
0979  2A19  	GOTO	label104
097A  183D  	BTFSC gbl_FCV_NOVI,0
097B  29CC  	GOTO	label103
097C  3000  	MOVLW HIGH(gbl_FCV_GLAVNA_SIFRA_STRING+D'0')
097D  00C7  	MOVWF FCI_COMPAR_0004C_arg_sSrc1+D'1'
097E  3034  	MOVLW LOW(gbl_FCV_GLAVNA_SIFRA_STRING+D'0')
097F  00C6  	MOVWF FCI_COMPAR_0004C_arg_sSrc1
0980  3014  	MOVLW 0x14
0981  00C8  	MOVWF FCI_COMPAR_0004C_arg_iSrc1_len
0982  3000  	MOVLW HIGH(gbl_FCV_UPISANA_SIFRA+D'0')
0983  00CA  	MOVWF FCI_COMPAR_0004C_arg_sSrc2+D'1'
0984  3020  	MOVLW LOW(gbl_FCV_UPISANA_SIFRA+D'0')
0985  00C9  	MOVWF FCI_COMPAR_0004C_arg_sSrc2
0986  3014  	MOVLW 0x14
0987  00CB  	MOVWF FCI_COMPAR_0004C_arg_iSrc2_len
0988  01CC  	CLRF FCI_COMPAR_0004C_arg_iNoCase
0989  118A  	BCF PCLATH,3
098A  26E2  	CALL FCI_COMPAR_0004C
098B  08D1  	MOVF CompTempVarRet2027, F
098C  158A  	BSF PCLATH,3
098D  1903  	BTFSC STATUS,Z
098E  29AE  	GOTO	label102
098F  10BD  	BCF gbl_FCV_OTKLJUCAN,1
0990  01C8  	CLRF CompTempVar2345
0991  3000  	MOVLW HIGH(CompTempVar2345+D'0')
0992  00C7  	MOVWF FCI_SCOPY_00000_arg_sSrc+D'1'
0993  30C8  	MOVLW LOW(CompTempVar2345+D'0')
0994  00C6  	MOVWF FCI_SCOPY_00000_arg_sSrc
0995  01C9  	CLRF FCI_SCOPY_00000_arg_iSrc_len
0996  3000  	MOVLW HIGH(gbl_FCV_GLAVNA_SIFRA_STRING+D'0')
0997  00CB  	MOVWF FCI_SCOPY_00000_arg_sDst+D'1'
0998  3034  	MOVLW LOW(gbl_FCV_GLAVNA_SIFRA_STRING+D'0')
0999  00CA  	MOVWF FCI_SCOPY_00000_arg_sDst
099A  3014  	MOVLW 0x14
099B  00CC  	MOVWF FCI_SCOPY_00000_arg_iDst_len
099C  118A  	BCF PCLATH,3
099D  26AE  	CALL FCI_SCOPY_00000
099E  01C8  	CLRF CompTempVar2348
099F  3000  	MOVLW HIGH(CompTempVar2348+D'0')
09A0  00C7  	MOVWF FCI_SCOPY_00000_arg_sSrc+D'1'
09A1  30C8  	MOVLW LOW(CompTempVar2348+D'0')
09A2  00C6  	MOVWF FCI_SCOPY_00000_arg_sSrc
09A3  01C9  	CLRF FCI_SCOPY_00000_arg_iSrc_len
09A4  3000  	MOVLW HIGH(gbl_FCV_ZVZ+D'0')
09A5  00CB  	MOVWF FCI_SCOPY_00000_arg_sDst+D'1'
09A6  3048  	MOVLW LOW(gbl_FCV_ZVZ+D'0')
09A7  00CA  	MOVWF FCI_SCOPY_00000_arg_sDst
09A8  3014  	MOVLW 0x14
09A9  00CC  	MOVWF FCI_SCOPY_00000_arg_iDst_len
09AA  26AE  	CALL FCI_SCOPY_00000
09AB  2777  	CALL FCD_LCDDis_00057
09AC  158A  	BSF PCLATH,3
09AD  2A19  	GOTO	label104
09AE        label102
09AE  14BD  	BSF gbl_FCV_OTKLJUCAN,1
09AF  01C8  	CLRF CompTempVar2351
09B0  3000  	MOVLW HIGH(CompTempVar2351+D'0')
09B1  00C7  	MOVWF FCI_SCOPY_00000_arg_sSrc+D'1'
09B2  30C8  	MOVLW LOW(CompTempVar2351+D'0')
09B3  00C6  	MOVWF FCI_SCOPY_00000_arg_sSrc
09B4  01C9  	CLRF FCI_SCOPY_00000_arg_iSrc_len
09B5  3000  	MOVLW HIGH(gbl_FCV_GLAVNA_SIFRA_STRING+D'0')
09B6  00CB  	MOVWF FCI_SCOPY_00000_arg_sDst+D'1'
09B7  3034  	MOVLW LOW(gbl_FCV_GLAVNA_SIFRA_STRING+D'0')
09B8  00CA  	MOVWF FCI_SCOPY_00000_arg_sDst
09B9  3014  	MOVLW 0x14
09BA  00CC  	MOVWF FCI_SCOPY_00000_arg_iDst_len
09BB  118A  	BCF PCLATH,3
09BC  26AE  	CALL FCI_SCOPY_00000
09BD  01C8  	CLRF CompTempVar2354
09BE  3000  	MOVLW HIGH(CompTempVar2354+D'0')
09BF  00C7  	MOVWF FCI_SCOPY_00000_arg_sSrc+D'1'
09C0  30C8  	MOVLW LOW(CompTempVar2354+D'0')
09C1  00C6  	MOVWF FCI_SCOPY_00000_arg_sSrc
09C2  01C9  	CLRF FCI_SCOPY_00000_arg_iSrc_len
09C3  3000  	MOVLW HIGH(gbl_FCV_ZVZ+D'0')
09C4  00CB  	MOVWF FCI_SCOPY_00000_arg_sDst+D'1'
09C5  3048  	MOVLW LOW(gbl_FCV_ZVZ+D'0')
09C6  00CA  	MOVWF FCI_SCOPY_00000_arg_sDst
09C7  3014  	MOVLW 0x14
09C8  00CC  	MOVWF FCI_SCOPY_00000_arg_iDst_len
09C9  26AE  	CALL FCI_SCOPY_00000
09CA  158A  	BSF PCLATH,3
09CB  2A19  	GOTO	label104
09CC        label103
09CC  118A  	BCF PCLATH,3
09CD  2467  	CALL FCM_upisiv_00053
09CE  3014  	MOVLW 0x14
09CF  00CA  	MOVWF delay_ms_00000_arg_del
09D0  2010  	CALL delay_ms_00000
09D1  259C  	CALL FCM_ucitav_00051
09D2  3002  	MOVLW 0x02
09D3  00C6  	MOVWF delay_s_00000_arg_del
09D4  2094  	CALL delay_s_00000
09D5  2777  	CALL FCD_LCDDis_00057
09D6  01C6  	CLRF FCD_LCDDis_0005A_arg_x
09D7  01C7  	CLRF FCD_LCDDis_0005A_arg_y
09D8  2766  	CALL FCD_LCDDis_0005A
09D9  3020  	MOVLW 0x20
09DA  00CD  	MOVWF CompTempVar2357+D'5'
09DB  3021  	MOVLW 0x21
09DC  00D5  	MOVWF CompTempVar2357+D'13'
09DD  3053  	MOVLW 0x53
09DE  00C8  	MOVWF CompTempVar2357
09DF  3061  	MOVLW 0x61
09E0  00CC  	MOVWF CompTempVar2357+D'4'
09E1  00D2  	MOVWF CompTempVar2357+D'10'
09E2  00D4  	MOVWF CompTempVar2357+D'12'
09E3  3066  	MOVLW 0x66
09E4  00CA  	MOVWF CompTempVar2357+D'2'
09E5  3069  	MOVLW 0x69
09E6  00C9  	MOVWF CompTempVar2357+D'1'
09E7  00D0  	MOVWF CompTempVar2357+D'8'
09E8  306E  	MOVLW 0x6E
09E9  00D3  	MOVWF CompTempVar2357+D'11'
09EA  3070  	MOVLW 0x70
09EB  00CF  	MOVWF CompTempVar2357+D'7'
09EC  3072  	MOVLW 0x72
09ED  00CB  	MOVWF CompTempVar2357+D'3'
09EE  3073  	MOVLW 0x73
09EF  00D1  	MOVWF CompTempVar2357+D'9'
09F0  3075  	MOVLW 0x75
09F1  00CE  	MOVWF CompTempVar2357+D'6'
09F2  01D6  	CLRF CompTempVar2357+D'14'
09F3  3000  	MOVLW HIGH(CompTempVar2357+D'0')
09F4  00C7  	MOVWF FCD_LCDDis_0005C_arg_String+D'1'
09F5  30C8  	MOVLW LOW(CompTempVar2357+D'0')
09F6  00C6  	MOVWF FCD_LCDDis_0005C_arg_String
09F7  300E  	MOVLW 0x0E
09F8  00D8  	MOVWF FCD_LCDDis_0005C_arg_MSZ_String
09F9  274A  	CALL FCD_LCDDis_0005C
09FA  3002  	MOVLW 0x02
09FB  00C6  	MOVWF delay_s_00000_arg_del
09FC  2094  	CALL delay_s_00000
09FD  2777  	CALL FCD_LCDDis_00057
09FE  103D  	BCF gbl_FCV_NOVI,0
09FF  01C8  	CLRF CompTempVar2359
0A00  3000  	MOVLW HIGH(CompTempVar2359+D'0')
0A01  00C7  	MOVWF FCI_SCOPY_00000_arg_sSrc+D'1'
0A02  30C8  	MOVLW LOW(CompTempVar2359+D'0')
0A03  00C6  	MOVWF FCI_SCOPY_00000_arg_sSrc
0A04  01C9  	CLRF FCI_SCOPY_00000_arg_iSrc_len
0A05  3000  	MOVLW HIGH(gbl_FCV_GLAVNA_SIFRA_STRING+D'0')
0A06  00CB  	MOVWF FCI_SCOPY_00000_arg_sDst+D'1'
0A07  3034  	MOVLW LOW(gbl_FCV_GLAVNA_SIFRA_STRING+D'0')
0A08  00CA  	MOVWF FCI_SCOPY_00000_arg_sDst
0A09  3014  	MOVLW 0x14
0A0A  00CC  	MOVWF FCI_SCOPY_00000_arg_iDst_len
0A0B  26AE  	CALL FCI_SCOPY_00000
0A0C  01C8  	CLRF CompTempVar2362
0A0D  3000  	MOVLW HIGH(CompTempVar2362+D'0')
0A0E  00C7  	MOVWF FCI_SCOPY_00000_arg_sSrc+D'1'
0A0F  30C8  	MOVLW LOW(CompTempVar2362+D'0')
0A10  00C6  	MOVWF FCI_SCOPY_00000_arg_sSrc
0A11  01C9  	CLRF FCI_SCOPY_00000_arg_iSrc_len
0A12  3000  	MOVLW HIGH(gbl_FCV_ZVZ+D'0')
0A13  00CB  	MOVWF FCI_SCOPY_00000_arg_sDst+D'1'
0A14  3048  	MOVLW LOW(gbl_FCV_ZVZ+D'0')
0A15  00CA  	MOVWF FCI_SCOPY_00000_arg_sDst
0A16  3014  	MOVLW 0x14
0A17  00CC  	MOVWF FCI_SCOPY_00000_arg_iDst_len
0A18  26AE  	CALL FCI_SCOPY_00000
0A19        label104
0A19  01C5  	CLRF CompTempVar2339
0A1A  0832  	MOVF gbl_FCV_VALUE, W
0A1B  3C0B  	SUBLW 0x0B
0A1C  1903  	BTFSC STATUS,Z
0A1D  0833  	MOVF gbl_FCV_VALUE+D'1', W
0A1E  1D03  	BTFSS STATUS,Z
0A1F  0AC5  	INCF CompTempVar2339, F
0A20  01C4  	CLRF CompTempVar2338
0A21  0832  	MOVF gbl_FCV_VALUE, W
0A22  3C0A  	SUBLW 0x0A
0A23  1903  	BTFSC STATUS,Z
0A24  0833  	MOVF gbl_FCV_VALUE+D'1', W
0A25  1D03  	BTFSS STATUS,Z
0A26  0AC4  	INCF CompTempVar2338, F
0A27  0844  	MOVF CompTempVar2338, W
0A28  0545  	ANDWF CompTempVar2339, W
0A29  158A  	BSF PCLATH,3
0A2A  1903  	BTFSC STATUS,Z
0A2B  2A6A  	GOTO	label105
0A2C  0832  	MOVF gbl_FCV_VALUE, W
0A2D  00C6  	MOVWF FCI_TOSTRI_00049_arg_iSrc1
0A2E  0833  	MOVF gbl_FCV_VALUE+D'1', W
0A2F  00C7  	MOVWF FCI_TOSTRI_00049_arg_iSrc1+D'1'
0A30  01C8  	CLRF FCI_TOSTRI_00049_arg_iSrc1+D'2'
0A31  01C9  	CLRF FCI_TOSTRI_00049_arg_iSrc1+D'3'
0A32  3000  	MOVLW HIGH(gbl_FCV_VALUE_STRING+D'0')
0A33  00CB  	MOVWF FCI_TOSTRI_00049_arg_sDst+D'1'
0A34  305C  	MOVLW LOW(gbl_FCV_VALUE_STRING+D'0')
0A35  00CA  	MOVWF FCI_TOSTRI_00049_arg_sDst
0A36  3014  	MOVLW 0x14
0A37  00CC  	MOVWF FCI_TOSTRI_00049_arg_iDst_len
0A38  118A  	BCF PCLATH,3
0A39  2179  	CALL FCI_TOSTRI_00049
0A3A  3000  	MOVLW HIGH(gbl_FCV_GLAVNA_SIFRA_STRING+D'0')
0A3B  00C7  	MOVWF FCI_SHEAD_00000_arg_sSrc1+D'1'
0A3C  3034  	MOVLW LOW(gbl_FCV_GLAVNA_SIFRA_STRING+D'0')
0A3D  00C6  	MOVWF FCI_SHEAD_00000_arg_sSrc1
0A3E  3014  	MOVLW 0x14
0A3F  00C8  	MOVWF FCI_SHEAD_00000_arg_iSrc1_len
0A40  3000  	MOVLW HIGH(gbl_FCV_VALUE_STRING+D'0')
0A41  00CA  	MOVWF FCI_SHEAD_00000_arg_sSrc2+D'1'
0A42  305C  	MOVLW LOW(gbl_FCV_VALUE_STRING+D'0')
0A43  00C9  	MOVWF FCI_SHEAD_00000_arg_sSrc2
0A44  3014  	MOVLW 0x14
0A45  00CD  	MOVWF FCI_SHEAD_00000_arg_iSrc2_len
0A46  3000  	MOVLW HIGH(gbl_FCV_GLAVNA_SIFRA_STRING+D'0')
0A47  00CF  	MOVWF FCI_SHEAD_00000_arg_sDst+D'1'
0A48  3034  	MOVLW LOW(gbl_FCV_GLAVNA_SIFRA_STRING+D'0')
0A49  00CE  	MOVWF FCI_SHEAD_00000_arg_sDst
0A4A  3014  	MOVLW 0x14
0A4B  00D0  	MOVWF FCI_SHEAD_00000_arg_iDst_len
0A4C  22D5  	CALL FCI_SHEAD_00000
0A4D  3000  	MOVLW HIGH(gbl_FCV_ZVZ+D'0')
0A4E  00C7  	MOVWF FCI_SHEAD_00000_arg_sSrc1+D'1'
0A4F  3048  	MOVLW LOW(gbl_FCV_ZVZ+D'0')
0A50  00C6  	MOVWF FCI_SHEAD_00000_arg_sSrc1
0A51  3014  	MOVLW 0x14
0A52  00C8  	MOVWF FCI_SHEAD_00000_arg_iSrc1_len
0A53  302A  	MOVLW 0x2A
0A54  00CB  	MOVWF CompTempVar2370
0A55  01CC  	CLRF CompTempVar2370+D'1'
0A56  3000  	MOVLW HIGH(CompTempVar2370+D'0')
0A57  00CA  	MOVWF FCI_SHEAD_00000_arg_sSrc2+D'1'
0A58  30CB  	MOVLW LOW(CompTempVar2370+D'0')
0A59  00C9  	MOVWF FCI_SHEAD_00000_arg_sSrc2
0A5A  3001  	MOVLW 0x01
0A5B  00CD  	MOVWF FCI_SHEAD_00000_arg_iSrc2_len
0A5C  3000  	MOVLW HIGH(gbl_FCV_ZVZ+D'0')
0A5D  00CF  	MOVWF FCI_SHEAD_00000_arg_sDst+D'1'
0A5E  3048  	MOVLW LOW(gbl_FCV_ZVZ+D'0')
0A5F  00CE  	MOVWF FCI_SHEAD_00000_arg_sDst
0A60  3014  	MOVLW 0x14
0A61  00D0  	MOVWF FCI_SHEAD_00000_arg_iDst_len
0A62  22D5  	CALL FCI_SHEAD_00000
0A63  3000  	MOVLW HIGH(gbl_FCV_ZVZ+D'0')
0A64  00C7  	MOVWF FCD_LCDDis_0005C_arg_String+D'1'
0A65  3048  	MOVLW LOW(gbl_FCV_ZVZ+D'0')
0A66  00C6  	MOVWF FCD_LCDDis_0005C_arg_String
0A67  3014  	MOVLW 0x14
0A68  00D8  	MOVWF FCD_LCDDis_0005C_arg_MSZ_String
0A69  274A  	CALL FCD_LCDDis_0005C
0A6A        label105
0A6A  30FF  	MOVLW 0xFF
0A6B  0632  	XORWF gbl_FCV_VALUE, W
0A6C  1903  	BTFSC STATUS,Z
0A6D  0833  	MOVF gbl_FCV_VALUE+D'1', W
0A6E  158A  	BSF PCLATH,3
0A6F  1903  	BTFSC STATUS,Z
0A70  28C8  	GOTO	label97
0A71  118A  	BCF PCLATH,3
0A72  27DE  	CALL FCD_KeyPad_00061
0A73  084E  	MOVF CompTempVarRet2269, W
0A74  00B2  	MOVWF gbl_FCV_VALUE
0A75  01B3  	CLRF gbl_FCV_VALUE+D'1'
0A76  158A  	BSF PCLATH,3
0A77  120A  	BCF PCLATH,4
0A78  2A6A  	GOTO	label105
0A79        ; } main function end

	ORG 0x00000A79
0A79        _startup
0A79  30D5  	MOVLW 0xD5
0A7A  00F0  	MOVWF gbl_14_LSR
0A7B  30C4  	MOVLW 0xC4
0A7C  00F1  	MOVWF gbl_14_LSR+D'1'
0A7D  30BB  	MOVLW 0xBB
0A7E  00F2  	MOVWF gbl_14_LSR+D'2'
0A7F  30DC  	MOVLW 0xDC
0A80  00F3  	MOVWF gbl_14_LSR+D'3'
0A81  01F4  	CLRF gbl_15_gbl_aSig
0A82  01F5  	CLRF gbl_15_gbl_aSig+D'1'
0A83  01F6  	CLRF gbl_15_gbl_aSig+D'2'
0A84  01F7  	CLRF gbl_15_gbl_aSig+D'3'
0A85  01F8  	CLRF gbl_15_gbl_bSig
0A86  01F9  	CLRF gbl_15_gbl_bSig+D'1'
0A87  01FA  	CLRF gbl_15_gbl_bSig+D'2'
0A88  01FB  	CLRF gbl_15_gbl_bSig+D'3'
0A89  1683  	BSF STATUS, RP0
0A8A  1303  	BCF STATUS, RP1
0A8B  01A0  	CLRF gbl_15_gbl_zSig
0A8C  01A1  	CLRF gbl_15_gbl_zSig+D'1'
0A8D  01A2  	CLRF gbl_15_gbl_zSig+D'2'
0A8E  01A3  	CLRF gbl_15_gbl_zSig+D'3'
0A8F  01B7  	CLRF gbl_15_gbl_aExp
0A90  01B8  	CLRF gbl_15_gbl_bExp
0A91  01AC  	CLRF gbl_15_gbl_zExp
0A92  01AD  	CLRF gbl_15_gbl_zExp+D'1'
0A93  01B9  	CLRF gbl_15_gbl_aSign
0A94  01BA  	CLRF gbl_15_gbl_bSign
0A95  01BB  	CLRF gbl_15_gbl_zSign
0A96  01BC  	CLRF gbl_15_gbl_zSigZero
0A97  01A4  	CLRF gbl_15_gbl_ret
0A98  01A5  	CLRF gbl_15_gbl_ret+D'1'
0A99  01A6  	CLRF gbl_15_gbl_ret+D'2'
0A9A  01A7  	CLRF gbl_15_gbl_ret+D'3'
0A9B  01B5  	CLRF gbl_float_rounding_mode
0A9C  01B6  	CLRF gbl_float_exception_flags
0A9D  01B4  	CLRF gbl_float_detect_tininess
0A9E  3000  	MOVLW 0x00
0A9F  00BE  	MOVWF gbl_Keypad_2_MX_KEYPAD_COL
0AA0  3001  	MOVLW 0x01
0AA1  00BF  	MOVWF gbl_Keypad_2_MX_KEYPAD_ROW
0AA2  3002  	MOVLW 0x02
0AA3  00C0  	MOVWF gbl_Keypad_2_mtxKeysAsNumbers
0AA4  3003  	MOVLW 0x03
0AA5  00C1  	MOVWF gbl_Keypad_2_mtxKeysAsChars
0AA6  158A  	BSF PCLATH,3
0AA7  120A  	BCF PCLATH,4
0AA8  2893  	GOTO	main
	ORG 0x00000AA9
0AA9        interrupt
0AA9        ; { interrupt ; function begin
0AA9  0E7E  	SWAPF Int1BContext+D'2', W
0AAA  0084  	MOVWF FSR
0AAB  0E7D  	SWAPF Int1BContext+D'1', W
0AAC  008A  	MOVWF PCLATH
0AAD  0E7C  	SWAPF Int1BContext, W
0AAE  0083  	MOVWF STATUS
0AAF  0EFF  	SWAPF Int1Context, F
0AB0  0E7F  	SWAPF Int1Context, W
0AB1  0009  	RETFIE
0AB2        ; } interrupt function end

	ORG 0x00002007
2007  3F7A  	DW 0x3F7A
